
./tmp.elf：     文件格式 elf32-tradlittlemips

反汇编 .voice_mem 节：

8ff00000 <interface>:
8ff00000:	8ff005b0 	lw	s0,1456(ra)
8ff00004:	8ff003fc 	lw	s0,1020(ra)
8ff00008:	8ff00694 	lw	s0,1684(ra)
8ff0000c:	8ff00130 	lw	s0,304(ra)
8ff00010:	8ff00120 	lw	s0,288(ra)
8ff00014:	8ff00340 	lw	s0,832(ra)
8ff00018:	8ff00338 	lw	s0,824(ra)
8ff0001c:	8ff00150 	lw	s0,336(ra)
8ff00020:	8ff00330 	lw	s0,816(ra)
8ff00024:	8ff0015c 	lw	s0,348(ra)
8ff00028:	8ff002e0 	lw	s0,736(ra)
8ff0002c:	8ff00218 	lw	s0,536(ra)
8ff00030:	8ff001f4 	lw	s0,500(ra)
8ff00034:	8ff001d8 	lw	s0,472(ra)
8ff00038:	8ff001e8 	lw	s0,488(ra)
8ff0003c:	8ff00954 	lw	s0,2388(ra)
8ff00040:	8ff00170 	lw	s0,368(ra)
8ff00044:	8ff00184 	lw	s0,388(ra)
8ff00048:	8ff001a4 	lw	s0,420(ra)
8ff0004c:	8ff001c4 	lw	s0,452(ra)
8ff00050:	8ff00068 	lw	s0,104(ra)
8ff00054:	8ff000f8 	lw	s0,248(ra)
	...

8ff00060 <dump_voice_wakeup>:
8ff00060:	03e00008 	jr	ra
8ff00064:	00000000 	nop

8ff00068 <module_init>:
8ff00068:	3c028ff1 	lui	v0,0x8ff1
8ff0006c:	244384c0 	addiu	v1,v0,-31552
8ff00070:	3c028ff1 	lui	v0,0x8ff1
8ff00074:	0bfc0021 	j	8ff00084 <module_init+0x1c>
8ff00078:	244484c0 	addiu	a0,v0,-31552
8ff0007c:	ac600000 	sw	zero,0(v1)
8ff00080:	24630004 	addiu	v1,v1,4
8ff00084:	0064102b 	sltu	v0,v1,a0
8ff00088:	1440fffc 	bnez	v0,8ff0007c <module_init+0x14>
8ff0008c:	3c028ff0 	lui	v0,0x8ff0
8ff00090:	24030005 	li	v1,5
8ff00094:	ac437174 	sw	v1,29044(v0)
8ff00098:	3c028ff0 	lui	v0,0x8ff0
8ff0009c:	ac437170 	sw	v1,29040(v0)
8ff000a0:	3c028ff1 	lui	v0,0x8ff1
8ff000a4:	ac4084c0 	sw	zero,-31552(v0)
8ff000a8:	3c028ff1 	lui	v0,0x8ff1
8ff000ac:	ac4084c4 	sw	zero,-31548(v0)
8ff000b0:	3c028ff1 	lui	v0,0x8ff1
8ff000b4:	ac4084c8 	sw	zero,-31544(v0)
8ff000b8:	3c028ff1 	lui	v0,0x8ff1
8ff000bc:	ac4084e0 	sw	zero,-31520(v0)
8ff000c0:	3c028ff1 	lui	v0,0x8ff1
8ff000c4:	ac4084e4 	sw	zero,-31516(v0)
8ff000c8:	3c028ff1 	lui	v0,0x8ff1
8ff000cc:	ac4084e8 	sw	zero,-31512(v0)
8ff000d0:	3c028ff1 	lui	v0,0x8ff1
8ff000d4:	ac4084cc 	sw	zero,-31540(v0)
8ff000d8:	3c028ff1 	lui	v0,0x8ff1
8ff000dc:	ac4084d0 	sw	zero,-31536(v0)
8ff000e0:	3c028ff1 	lui	v0,0x8ff1
8ff000e4:	ac4084d4 	sw	zero,-31532(v0)
8ff000e8:	3c028ff1 	lui	v0,0x8ff1
8ff000ec:	ac4084d8 	sw	zero,-31528(v0)
8ff000f0:	03e00008 	jr	ra
8ff000f4:	00001021 	move	v0,zero

8ff000f8 <module_exit>:
8ff000f8:	03e00008 	jr	ra
8ff000fc:	00001021 	move	v0,zero

8ff00100 <flush_dcache_all>:
8ff00100:	3c028000 	lui	v0,0x8000
8ff00104:	34438000 	ori	v1,v0,0x8000
8ff00108:	bc410000 	cache	0x1,0(v0)
8ff0010c:	24420020 	addiu	v0,v0,32
8ff00110:	1443fffd 	bne	v0,v1,8ff00108 <flush_dcache_all+0x8>
8ff00114:	00000000 	nop
8ff00118:	03e00008 	jr	ra
8ff0011c:	00000000 	nop

8ff00120 <set_handler>:
8ff00120:	3c028ff1 	lui	v0,0x8ff1
8ff00124:	ac4484dc 	sw	a0,-31524(v0)
8ff00128:	03e00008 	jr	ra
8ff0012c:	00001021 	move	v0,zero

8ff00130 <cache_prefetch>:
8ff00130:	3c038ff0 	lui	v1,0x8ff0
8ff00134:	3c048ff4 	lui	a0,0x8ff4
8ff00138:	8c620000 	lw	v0,0(v1)
8ff0013c:	24630020 	addiu	v1,v1,32
8ff00140:	1464fffd 	bne	v1,a0,8ff00138 <cache_prefetch+0x8>
8ff00144:	00000000 	nop
8ff00148:	03e00008 	jr	ra
8ff0014c:	00000000 	nop

8ff00150 <get_resource_addr>:
8ff00150:	3c028ff3 	lui	v0,0x8ff3
8ff00154:	03e00008 	jr	ra
8ff00158:	24428000 	addiu	v0,v0,-32768

8ff0015c <is_cpu_wakeup_by_dmic>:
8ff0015c:	3c028ff1 	lui	v0,0x8ff1
8ff00160:	8c4284c0 	lw	v0,-31552(v0)
8ff00164:	38420002 	xori	v0,v0,0x2
8ff00168:	03e00008 	jr	ra
8ff0016c:	2c420001 	sltiu	v0,v0,1

8ff00170 <set_record_buffer>:
8ff00170:	3c028ff1 	lui	v0,0x8ff1
8ff00174:	ac4484cc 	sw	a0,-31540(v0)
8ff00178:	3c028ff1 	lui	v0,0x8ff1
8ff0017c:	03e00008 	jr	ra
8ff00180:	ac4584d0 	sw	a1,-31536(v0)

8ff00184 <get_record_buffer>:
8ff00184:	3c028ff1 	lui	v0,0x8ff1
8ff00188:	8c4384cc 	lw	v1,-31540(v0)
8ff0018c:	3c02b342 	lui	v0,0xb342
8ff00190:	10600002 	beqz	v1,8ff0019c <get_record_buffer+0x18>
8ff00194:	34422000 	ori	v0,v0,0x2000
8ff00198:	00601021 	move	v0,v1
8ff0019c:	03e00008 	jr	ra
8ff001a0:	00000000 	nop

8ff001a4 <get_record_buffer_len>:
8ff001a4:	3c028ff1 	lui	v0,0x8ff1
8ff001a8:	8c4284cc 	lw	v0,-31540(v0)
8ff001ac:	10400003 	beqz	v0,8ff001bc <get_record_buffer_len+0x18>
8ff001b0:	24031000 	li	v1,4096
8ff001b4:	3c028ff1 	lui	v0,0x8ff1
8ff001b8:	8c4384d0 	lw	v1,-31536(v0)
8ff001bc:	03e00008 	jr	ra
8ff001c0:	00601021 	move	v0,v1

8ff001c4 <set_desc_addr>:
8ff001c4:	3c028ff1 	lui	v0,0x8ff1
8ff001c8:	ac4484d4 	sw	a0,-31532(v0)
8ff001cc:	3c028ff1 	lui	v0,0x8ff1
8ff001d0:	03e00008 	jr	ra
8ff001d4:	ac4584d8 	sw	a1,-31528(v0)

8ff001d8 <voice_wakeup_enable>:
8ff001d8:	3c028ff1 	lui	v0,0x8ff1
8ff001dc:	ac4484e4 	sw	a0,-31516(v0)
8ff001e0:	03e00008 	jr	ra
8ff001e4:	00001021 	move	v0,zero

8ff001e8 <is_voice_wakeup_enabled>:
8ff001e8:	3c028ff1 	lui	v0,0x8ff1
8ff001ec:	03e00008 	jr	ra
8ff001f0:	8c4284e4 	lw	v0,-31516(v0)

8ff001f4 <set_dma_channel>:
8ff001f4:	27bdffe8 	addiu	sp,sp,-24
8ff001f8:	3c028ff0 	lui	v0,0x8ff0
8ff001fc:	afbf0010 	sw	ra,16(sp)
8ff00200:	0ffc03dc 	jal	8ff00f70 <dma_set_channel>
8ff00204:	ac447170 	sw	a0,29040(v0)
8ff00208:	8fbf0010 	lw	ra,16(sp)
8ff0020c:	00001021 	move	v0,zero
8ff00210:	03e00008 	jr	ra
8ff00214:	27bd0018 	addiu	sp,sp,24

8ff00218 <get_sleep_process>:
8ff00218:	27bdffe0 	addiu	sp,sp,-32
8ff0021c:	afbf001c 	sw	ra,28(sp)
8ff00220:	afb20018 	sw	s2,24(sp)
8ff00224:	afb10014 	sw	s1,20(sp)
8ff00228:	afb00010 	sw	s0,16(sp)
8ff0022c:	3c028ff1 	lui	v0,0x8ff1
8ff00230:	8c4384e4 	lw	v1,-31516(v0)
8ff00234:	3c028ff1 	lui	v0,0x8ff1
8ff00238:	14600007 	bnez	v1,8ff00258 <get_sleep_process+0x40>
8ff0023c:	8c5184e0 	lw	s1,-31520(v0)
8ff00240:	0bfc00b1 	j	8ff002c4 <get_sleep_process+0xac>
8ff00244:	24110002 	li	s1,2
8ff00248:	3c028ff1 	lui	v0,0x8ff1
8ff0024c:	24110001 	li	s1,1
8ff00250:	0bfc00a8 	j	8ff002a0 <get_sleep_process+0x88>
8ff00254:	ac4384c0 	sw	v1,-31552(v0)
8ff00258:	00009021 	move	s2,zero
8ff0025c:	0bfc00a3 	j	8ff0028c <get_sleep_process+0x74>
8ff00260:	02208021 	move	s0,s1
8ff00264:	8e250024 	lw	a1,36(s1)
8ff00268:	8e040000 	lw	a0,0(s0)
8ff0026c:	00a3001b 	divu	zero,a1,v1
8ff00270:	006001f4 	teq	v1,zero,0x7
8ff00274:	26100004 	addiu	s0,s0,4
8ff00278:	0ffc06d2 	jal	8ff01b48 <process_buffer_data>
8ff0027c:	00002812 	mflo	a1
8ff00280:	24030001 	li	v1,1
8ff00284:	1043fff0 	beq	v0,v1,8ff00248 <get_sleep_process+0x30>
8ff00288:	24030002 	li	v1,2
8ff0028c:	8e230020 	lw	v1,32(s1)
8ff00290:	0243102b 	sltu	v0,s2,v1
8ff00294:	1440fff3 	bnez	v0,8ff00264 <get_sleep_process+0x4c>
8ff00298:	26520001 	addiu	s2,s2,1
8ff0029c:	24110002 	li	s1,2
8ff002a0:	3c108ff0 	lui	s0,0x8ff0
8ff002a4:	0ffc03df 	jal	8ff00f7c <dma_stop>
8ff002a8:	8e047170 	lw	a0,29040(s0)
8ff002ac:	0ffc0462 	jal	8ff01188 <dma_config_normal>
8ff002b0:	00000000 	nop
8ff002b4:	0ffc0624 	jal	8ff01890 <wakeup_reset_fifo>
8ff002b8:	00000000 	nop
8ff002bc:	0ffc03e4 	jal	8ff00f90 <dma_start>
8ff002c0:	8e047170 	lw	a0,29040(s0)
8ff002c4:	02201021 	move	v0,s1
8ff002c8:	8fbf001c 	lw	ra,28(sp)
8ff002cc:	8fb20018 	lw	s2,24(sp)
8ff002d0:	8fb10014 	lw	s1,20(sp)
8ff002d4:	8fb00010 	lw	s0,16(sp)
8ff002d8:	03e00008 	jr	ra
8ff002dc:	27bd0020 	addiu	sp,sp,32

8ff002e0 <set_sleep_buffer>:
8ff002e0:	27bdffe0 	addiu	sp,sp,-32
8ff002e4:	afb10014 	sw	s1,20(sp)
8ff002e8:	3c118ff0 	lui	s1,0x8ff0
8ff002ec:	afb00010 	sw	s0,16(sp)
8ff002f0:	00808021 	move	s0,a0
8ff002f4:	8e247170 	lw	a0,29040(s1)
8ff002f8:	3c028ff1 	lui	v0,0x8ff1
8ff002fc:	afbf0018 	sw	ra,24(sp)
8ff00300:	0ffc03df 	jal	8ff00f7c <dma_stop>
8ff00304:	ac5084e0 	sw	s0,-31520(v0)
8ff00308:	0ffc0427 	jal	8ff0109c <dma_config_early_sleep>
8ff0030c:	02002021 	move	a0,s0
8ff00310:	0ffc03e4 	jal	8ff00f90 <dma_start>
8ff00314:	8e247170 	lw	a0,29040(s1)
8ff00318:	8fbf0018 	lw	ra,24(sp)
8ff0031c:	8fb10014 	lw	s1,20(sp)
8ff00320:	8fb00010 	lw	s0,16(sp)
8ff00324:	00001021 	move	v0,zero
8ff00328:	03e00008 	jr	ra
8ff0032c:	27bd0020 	addiu	sp,sp,32

8ff00330 <process_data>:
8ff00330:	0bfc06e2 	j	8ff01b88 <process_dma_data>
8ff00334:	00000000 	nop

8ff00338 <ioctl>:
8ff00338:	0bfc0335 	j	8ff00cd4 <dmic_ioctl>
8ff0033c:	00000000 	nop

8ff00340 <get_dma_address>:
8ff00340:	3c028ff0 	lui	v0,0x8ff0
8ff00344:	8c447170 	lw	a0,29040(v0)
8ff00348:	0bfc0601 	j	8ff01804 <pdma_trans_addr>
8ff0034c:	24050002 	li	a1,2

8ff00350 <powerdown_wait>:
8ff00350:	27bdffe8 	addiu	sp,sp,-24
8ff00354:	3c05b000 	lui	a1,0xb000
8ff00358:	afbf0010 	sw	ra,16(sp)
8ff0035c:	34a40004 	ori	a0,a1,0x4
8ff00360:	8c820000 	lw	v0,0(a0)
8ff00364:	2403fffc 	li	v1,-4
8ff00368:	00431024 	and	v0,v0,v1
8ff0036c:	34420001 	ori	v0,v0,0x1
8ff00370:	ac820000 	sw	v0,0(a0)
8ff00374:	40037801 	mfc0	v1,$15,1
8ff00378:	34a60024 	ori	a2,a1,0x24
8ff0037c:	8cc40000 	lw	a0,0(a2)
8ff00380:	3c02f9ff 	lui	v0,0xf9ff
8ff00384:	3442ffff 	ori	v0,v0,0xffff
8ff00388:	30630001 	andi	v1,v1,0x1
8ff0038c:	00822024 	and	a0,a0,v0
8ff00390:	24630001 	addiu	v1,v1,1
8ff00394:	3c024000 	lui	v0,0x4000
8ff00398:	00822025 	or	a0,a0,v0
8ff0039c:	00031e40 	sll	v1,v1,0x19
8ff003a0:	00641825 	or	v1,v1,a0
8ff003a4:	acc30000 	sw	v1,0(a2)
8ff003a8:	34a50020 	ori	a1,a1,0x20
8ff003ac:	8ca30000 	lw	v1,0(a1)
8ff003b0:	3c027fff 	lui	v0,0x7fff
8ff003b4:	3442ffff 	ori	v0,v0,0xffff
8ff003b8:	00621824 	and	v1,v1,v0
8ff003bc:	aca30000 	sw	v1,0(a1)
8ff003c0:	8cc20000 	lw	v0,0(a2)
8ff003c4:	0ffc0255 	jal	8ff00954 <cpu_should_sleep>
8ff003c8:	00000000 	nop
8ff003cc:	1040fffd 	beqz	v0,8ff003c4 <powerdown_wait+0x74>
8ff003d0:	00000000 	nop
	...
8ff003e0:	42000020 	wait
	...
8ff003f0:	8fbf0010 	lw	ra,16(sp)
8ff003f4:	03e00008 	jr	ra
8ff003f8:	27bd0018 	addiu	sp,sp,24

8ff003fc <handler>:
8ff003fc:	27bdffe0 	addiu	sp,sp,-32
8ff00400:	3c02b000 	lui	v0,0xb000
8ff00404:	afbf001c 	sw	ra,28(sp)
8ff00408:	afb00018 	sw	s0,24(sp)
8ff0040c:	34420020 	ori	v0,v0,0x20
8ff00410:	8c430000 	lw	v1,0(v0)
8ff00414:	3c048000 	lui	a0,0x8000
8ff00418:	00641825 	or	v1,v1,a0
8ff0041c:	ac430000 	sw	v1,0(v0)
8ff00420:	3c02b000 	lui	v0,0xb000
8ff00424:	34431010 	ori	v1,v0,0x1010
8ff00428:	34441030 	ori	a0,v0,0x1030
8ff0042c:	8c900000 	lw	s0,0(a0)
8ff00430:	3c02fbff 	lui	v0,0xfbff
8ff00434:	8c630000 	lw	v1,0(v1)
8ff00438:	3442fffe 	ori	v0,v0,0xfffe
8ff0043c:	00621824 	and	v1,v1,v0
8ff00440:	14600011 	bnez	v1,8ff00488 <handler+0x8c>
8ff00444:	24030001 	li	v1,1
8ff00448:	8c820000 	lw	v0,0(a0)
8ff0044c:	2403fffe 	li	v1,-2
8ff00450:	00431024 	and	v0,v0,v1
8ff00454:	1440000c 	bnez	v0,8ff00488 <handler+0x8c>
8ff00458:	24030001 	li	v1,1
8ff0045c:	8c820000 	lw	v0,0(a0)
8ff00460:	30420001 	andi	v0,v0,0x1
8ff00464:	1040000d 	beqz	v0,8ff0049c <handler+0xa0>
8ff00468:	00000000 	nop
8ff0046c:	0ffc0536 	jal	8ff014d8 <rtc_int_handler>
8ff00470:	00000000 	nop
8ff00474:	afa20010 	sw	v0,16(sp)
8ff00478:	8fa30010 	lw	v1,16(sp)
8ff0047c:	24020002 	li	v0,2
8ff00480:	14620005 	bne	v1,v0,8ff00498 <handler+0x9c>
8ff00484:	24030001 	li	v1,1
8ff00488:	3c028ff1 	lui	v0,0x8ff1
8ff0048c:	ac4384c0 	sw	v1,-31552(v0)
8ff00490:	0bfc015f 	j	8ff0057c <handler+0x180>
8ff00494:	afa30010 	sw	v1,16(sp)
8ff00498:	8fa20010 	lw	v0,16(sp)
8ff0049c:	0ffc0365 	jal	8ff00d94 <dmic_handler>
8ff004a0:	02002021 	move	a0,s0
8ff004a4:	afa20010 	sw	v0,16(sp)
8ff004a8:	8fa30010 	lw	v1,16(sp)
8ff004ac:	24020001 	li	v0,1
8ff004b0:	14620004 	bne	v1,v0,8ff004c4 <handler+0xc8>
8ff004b4:	24030002 	li	v1,2
8ff004b8:	3c028ff1 	lui	v0,0x8ff1
8ff004bc:	0bfc015f 	j	8ff0057c <handler+0x180>
8ff004c0:	ac4384c0 	sw	v1,-31552(v0)
8ff004c4:	8fa30010 	lw	v1,16(sp)
8ff004c8:	24020003 	li	v0,3
8ff004cc:	1462001c 	bne	v1,v0,8ff00540 <handler+0x144>
8ff004d0:	00000000 	nop
8ff004d4:	0ffc0255 	jal	8ff00954 <cpu_should_sleep>
8ff004d8:	00000000 	nop
8ff004dc:	10400009 	beqz	v0,8ff00504 <handler+0x108>
8ff004e0:	3c03b000 	lui	v1,0xb000
8ff004e4:	0ffc0040 	jal	8ff00100 <flush_dcache_all>
8ff004e8:	00000000 	nop
8ff004ec:	0ffc0255 	jal	8ff00954 <cpu_should_sleep>
8ff004f0:	00000000 	nop
8ff004f4:	1040fffd 	beqz	v0,8ff004ec <handler+0xf0>
8ff004f8:	00000000 	nop
8ff004fc:	0bfc015a 	j	8ff00568 <handler+0x16c>
8ff00500:	00000000 	nop
8ff00504:	34630004 	ori	v1,v1,0x4
8ff00508:	8c620000 	lw	v0,0(v1)
8ff0050c:	2404fffc 	li	a0,-4
8ff00510:	00441024 	and	v0,v0,a0
8ff00514:	ac620000 	sw	v0,0(v1)
8ff00518:	8c620000 	lw	v0,0(v1)
	...
8ff00528:	42000020 	wait
	...
8ff00538:	0bfc0109 	j	8ff00424 <handler+0x28>
8ff0053c:	3c02b000 	lui	v0,0xb000
8ff00540:	8fa30010 	lw	v1,16(sp)
8ff00544:	24020002 	li	v0,2
8ff00548:	1462ffb6 	bne	v1,v0,8ff00424 <handler+0x28>
8ff0054c:	3c02b000 	lui	v0,0xb000
8ff00550:	0ffc0040 	jal	8ff00100 <flush_dcache_all>
8ff00554:	00000000 	nop
8ff00558:	0ffc0255 	jal	8ff00954 <cpu_should_sleep>
8ff0055c:	00000000 	nop
8ff00560:	1040fffd 	beqz	v0,8ff00558 <handler+0x15c>
8ff00564:	00000000 	nop
8ff00568:	0000000f 	sync
8ff0056c:	0ffc00d4 	jal	8ff00350 <powerdown_wait>
8ff00570:	00000000 	nop
8ff00574:	0bfc0109 	j	8ff00424 <handler+0x28>
8ff00578:	3c02b000 	lui	v0,0xb000
8ff0057c:	8fa30010 	lw	v1,16(sp)
8ff00580:	24020001 	li	v0,1
8ff00584:	14620005 	bne	v1,v0,8ff0059c <handler+0x1a0>
8ff00588:	00000000 	nop
8ff0058c:	0ffc0040 	jal	8ff00100 <flush_dcache_all>
8ff00590:	00000000 	nop
8ff00594:	0ffc052a 	jal	8ff014a8 <rtc_exit>
8ff00598:	00000000 	nop
8ff0059c:	8fa20010 	lw	v0,16(sp)
8ff005a0:	8fbf001c 	lw	ra,28(sp)
8ff005a4:	8fb00018 	lw	s0,24(sp)
8ff005a8:	03e00008 	jr	ra
8ff005ac:	27bd0020 	addiu	sp,sp,32

8ff005b0 <open>:
8ff005b0:	27bdffe8 	addiu	sp,sp,-24
8ff005b4:	afb00010 	sw	s0,16(sp)
8ff005b8:	afbf0014 	sw	ra,20(sp)
8ff005bc:	0ffc0462 	jal	8ff01188 <dma_config_normal>
8ff005c0:	00808021 	move	s0,a0
8ff005c4:	24020003 	li	v0,3
8ff005c8:	1202001a 	beq	s0,v0,8ff00634 <open+0x84>
8ff005cc:	24040003 	li	a0,3
8ff005d0:	24020004 	li	v0,4
8ff005d4:	1202001d 	beq	s0,v0,8ff0064c <open+0x9c>
8ff005d8:	24020002 	li	v0,2
8ff005dc:	16020020 	bne	s0,v0,8ff00660 <open+0xb0>
8ff005e0:	3c028ff0 	lui	v0,0x8ff0
8ff005e4:	3c028ff1 	lui	v0,0x8ff1
8ff005e8:	8c4284e4 	lw	v0,-31516(v0)
8ff005ec:	10400025 	beqz	v0,8ff00684 <open+0xd4>
8ff005f0:	8fbf0014 	lw	ra,20(sp)
8ff005f4:	0ffc04fa 	jal	8ff013e8 <rtc_init>
8ff005f8:	00000000 	nop
8ff005fc:	0ffc027d 	jal	8ff009f4 <dmic_init_mode>
8ff00600:	24040002 	li	a0,2
8ff00604:	0ffc0642 	jal	8ff01908 <wakeup_open>
8ff00608:	00000000 	nop
8ff0060c:	3c02b000 	lui	v0,0xb000
8ff00610:	3445102c 	ori	a1,v0,0x102c
8ff00614:	24040001 	li	a0,1
8ff00618:	3442100c 	ori	v0,v0,0x100c
8ff0061c:	3c030400 	lui	v1,0x400
8ff00620:	ac440000 	sw	a0,0(v0)
8ff00624:	ac430000 	sw	v1,0(v0)
8ff00628:	aca40000 	sw	a0,0(a1)
8ff0062c:	0bfc0198 	j	8ff00660 <open+0xb0>
8ff00630:	3c028ff0 	lui	v0,0x8ff0
8ff00634:	0ffc027d 	jal	8ff009f4 <dmic_init_mode>
8ff00638:	00000000 	nop
8ff0063c:	24030001 	li	v1,1
8ff00640:	3c028ff1 	lui	v0,0x8ff1
8ff00644:	0bfc0197 	j	8ff0065c <open+0xac>
8ff00648:	ac4384e8 	sw	v1,-31512(v0)
8ff0064c:	0ffc0642 	jal	8ff01908 <wakeup_open>
8ff00650:	00000000 	nop
8ff00654:	0ffc027d 	jal	8ff009f4 <dmic_init_mode>
8ff00658:	24040003 	li	a0,3
8ff0065c:	3c028ff0 	lui	v0,0x8ff0
8ff00660:	0ffc03e4 	jal	8ff00f90 <dma_start>
8ff00664:	8c447170 	lw	a0,29040(v0)
8ff00668:	0ffc03d3 	jal	8ff00f4c <dmic_enable>
8ff0066c:	00000000 	nop
8ff00670:	3c038ff1 	lui	v1,0x8ff1
8ff00674:	8c6284c4 	lw	v0,-31548(v1)
8ff00678:	24420001 	addiu	v0,v0,1
8ff0067c:	ac6284c4 	sw	v0,-31548(v1)
8ff00680:	8fbf0014 	lw	ra,20(sp)
8ff00684:	8fb00010 	lw	s0,16(sp)
8ff00688:	00001021 	move	v0,zero
8ff0068c:	03e00008 	jr	ra
8ff00690:	27bd0018 	addiu	sp,sp,24

8ff00694 <close>:
8ff00694:	27bdffe8 	addiu	sp,sp,-24
8ff00698:	24020002 	li	v0,2
8ff0069c:	afbf0010 	sw	ra,16(sp)
8ff006a0:	14820017 	bne	a0,v0,8ff00700 <close+0x6c>
8ff006a4:	3c068ff1 	lui	a2,0x8ff1
8ff006a8:	3c02b000 	lui	v0,0xb000
8ff006ac:	34431008 	ori	v1,v0,0x1008
8ff006b0:	34441028 	ori	a0,v0,0x1028
8ff006b4:	3c028ff1 	lui	v0,0x8ff1
8ff006b8:	8c4284e4 	lw	v0,-31516(v0)
8ff006bc:	10400022 	beqz	v0,8ff00748 <close+0xb4>
8ff006c0:	00000000 	nop
8ff006c4:	8c620000 	lw	v0,0(v1)
8ff006c8:	34420001 	ori	v0,v0,0x1
8ff006cc:	ac620000 	sw	v0,0(v1)
8ff006d0:	8c820000 	lw	v0,0(a0)
8ff006d4:	34420001 	ori	v0,v0,0x1
8ff006d8:	ac820000 	sw	v0,0(a0)
8ff006dc:	0ffc0304 	jal	8ff00c10 <dmic_disable_tri>
8ff006e0:	00000000 	nop
8ff006e4:	0ffc062b 	jal	8ff018ac <wakeup_close>
8ff006e8:	00000000 	nop
8ff006ec:	24040200 	li	a0,512
8ff006f0:	0ffc0335 	jal	8ff00cd4 <dmic_ioctl>
8ff006f4:	24053e80 	li	a1,16000
8ff006f8:	0bfc01d3 	j	8ff0074c <close+0xb8>
8ff006fc:	8fbf0010 	lw	ra,16(sp)
8ff00700:	8cc284c4 	lw	v0,-31548(a2)
8ff00704:	00002821 	move	a1,zero
8ff00708:	2443ffff 	addiu	v1,v0,-1
8ff0070c:	28620000 	slti	v0,v1,0
8ff00710:	0062280a 	movz	a1,v1,v0
8ff00714:	24020003 	li	v0,3
8ff00718:	14820002 	bne	a0,v0,8ff00724 <close+0x90>
8ff0071c:	3c028ff1 	lui	v0,0x8ff1
8ff00720:	ac4084e8 	sw	zero,-31512(v0)
8ff00724:	14600007 	bnez	v1,8ff00744 <close+0xb0>
8ff00728:	acc384c4 	sw	v1,-31548(a2)
8ff0072c:	0ffc0315 	jal	8ff00c54 <dmic_disable>
8ff00730:	00000000 	nop
8ff00734:	0ffc03e1 	jal	8ff00f84 <dma_close>
8ff00738:	00000000 	nop
8ff0073c:	0bfc01d3 	j	8ff0074c <close+0xb8>
8ff00740:	8fbf0010 	lw	ra,16(sp)
8ff00744:	acc584c4 	sw	a1,-31548(a2)
8ff00748:	8fbf0010 	lw	ra,16(sp)
8ff0074c:	00001021 	move	v0,zero
8ff00750:	03e00008 	jr	ra
8ff00754:	27bd0018 	addiu	sp,sp,24
	...

8ff00760 <dump_dmic_regs>:
8ff00760:	03e00008 	jr	ra
8ff00764:	00000000 	nop

8ff00768 <dump_gpio>:
8ff00768:	03e00008 	jr	ra
8ff0076c:	00000000 	nop

8ff00770 <dump_cpm_reg>:
8ff00770:	03e00008 	jr	ra
8ff00774:	00000000 	nop

8ff00778 <dmic_clk_config>:
8ff00778:	3c03b000 	lui	v1,0xb000
8ff0077c:	34630060 	ori	v1,v1,0x60
8ff00780:	8c620000 	lw	v0,0(v1)
8ff00784:	3c048000 	lui	a0,0x8000
8ff00788:	00441025 	or	v0,v0,a0
8ff0078c:	ac620000 	sw	v0,0(v1)
8ff00790:	8c620000 	lw	v0,0(v1)
8ff00794:	3c042000 	lui	a0,0x2000
8ff00798:	00441025 	or	v0,v0,a0
8ff0079c:	ac620000 	sw	v0,0(v1)
8ff007a0:	8c620000 	lw	v0,0(v1)
8ff007a4:	2404ff00 	li	a0,-256
8ff007a8:	00441024 	and	v0,v0,a0
8ff007ac:	ac620000 	sw	v0,0(v1)
8ff007b0:	8c620000 	lw	v0,0(v1)
8ff007b4:	00602021 	move	a0,v1
8ff007b8:	34420001 	ori	v0,v0,0x1
8ff007bc:	ac620000 	sw	v0,0(v1)
8ff007c0:	3c05b000 	lui	a1,0xb000
8ff007c4:	3c031000 	lui	v1,0x1000
8ff007c8:	8c820000 	lw	v0,0(a0)
8ff007cc:	00431024 	and	v0,v0,v1
8ff007d0:	1440fffd 	bnez	v0,8ff007c8 <dmic_clk_config+0x50>
8ff007d4:	00000000 	nop
8ff007d8:	8c830000 	lw	v1,0(a0)
8ff007dc:	3c02f7ff 	lui	v0,0xf7ff
8ff007e0:	3442ffff 	ori	v0,v0,0xffff
8ff007e4:	00621824 	and	v1,v1,v0
8ff007e8:	ac830000 	sw	v1,0(a0)
8ff007ec:	8c830000 	lw	v1,0(a0)
8ff007f0:	3c02dfff 	lui	v0,0xdfff
8ff007f4:	3442ffff 	ori	v0,v0,0xffff
8ff007f8:	00621824 	and	v1,v1,v0
8ff007fc:	ac830000 	sw	v1,0(a0)
8ff00800:	34a30028 	ori	v1,a1,0x28
8ff00804:	8c620000 	lw	v0,0(v1)
8ff00808:	2404ff7f 	li	a0,-129
8ff0080c:	00441024 	and	v0,v0,a0
8ff00810:	ac620000 	sw	v0,0(v1)
8ff00814:	34a30004 	ori	v1,a1,0x4
8ff00818:	8c620000 	lw	v0,0(v1)
8ff0081c:	00602821 	move	a1,v1
8ff00820:	00441024 	and	v0,v0,a0
8ff00824:	ac620000 	sw	v0,0(v1)
8ff00828:	8ca20000 	lw	v0,0(a1)
8ff0082c:	30420040 	andi	v0,v0,0x40
8ff00830:	1440fffd 	bnez	v0,8ff00828 <dmic_clk_config+0xb0>
8ff00834:	3c04b000 	lui	a0,0xb000
8ff00838:	34840024 	ori	a0,a0,0x24
8ff0083c:	8c820000 	lw	v0,0(a0)
8ff00840:	34420010 	ori	v0,v0,0x10
8ff00844:	ac820000 	sw	v0,0(a0)
8ff00848:	8c830000 	lw	v1,0(a0)
8ff0084c:	3c02f7ff 	lui	v0,0xf7ff
8ff00850:	3442ffff 	ori	v0,v0,0xffff
8ff00854:	00621824 	and	v1,v1,v0
8ff00858:	ac830000 	sw	v1,0(a0)
8ff0085c:	03e00008 	jr	ra
8ff00860:	00000000 	nop

8ff00864 <gpio_as_dmic>:
8ff00864:	3c03b001 	lui	v1,0xb001
8ff00868:	34650518 	ori	a1,v1,0x518
8ff0086c:	8ca20000 	lw	v0,0(a1)
8ff00870:	34660528 	ori	a2,v1,0x528
8ff00874:	344200c0 	ori	v0,v0,0xc0
8ff00878:	aca20000 	sw	v0,0(a1)
8ff0087c:	8cc20000 	lw	v0,0(a2)
8ff00880:	34670534 	ori	a3,v1,0x534
8ff00884:	344200c0 	ori	v0,v0,0xc0
8ff00888:	acc20000 	sw	v0,0(a2)
8ff0088c:	8ce20000 	lw	v0,0(a3)
8ff00890:	34640544 	ori	a0,v1,0x544
8ff00894:	344200c0 	ori	v0,v0,0xc0
8ff00898:	ace20000 	sw	v0,0(a3)
8ff0089c:	8c820000 	lw	v0,0(a0)
8ff008a0:	34630538 	ori	v1,v1,0x538
8ff008a4:	344200c0 	ori	v0,v0,0xc0
8ff008a8:	ac820000 	sw	v0,0(a0)
8ff008ac:	8ca20000 	lw	v0,0(a1)
8ff008b0:	34420c00 	ori	v0,v0,0xc00
8ff008b4:	aca20000 	sw	v0,0(a1)
8ff008b8:	8cc20000 	lw	v0,0(a2)
8ff008bc:	34420c00 	ori	v0,v0,0xc00
8ff008c0:	acc20000 	sw	v0,0(a2)
8ff008c4:	8c620000 	lw	v0,0(v1)
8ff008c8:	34420c00 	ori	v0,v0,0xc00
8ff008cc:	ac620000 	sw	v0,0(v1)
8ff008d0:	8c820000 	lw	v0,0(a0)
8ff008d4:	34420c00 	ori	v0,v0,0xc00
8ff008d8:	ac820000 	sw	v0,0(a0)
8ff008dc:	03e00008 	jr	ra
8ff008e0:	00000000 	nop

8ff008e4 <dmic_init>:
8ff008e4:	27bdffe8 	addiu	sp,sp,-24
8ff008e8:	afbf0010 	sw	ra,16(sp)
8ff008ec:	0ffc0219 	jal	8ff00864 <gpio_as_dmic>
8ff008f0:	00000000 	nop
8ff008f4:	0ffc01de 	jal	8ff00778 <dmic_clk_config>
8ff008f8:	00000000 	nop
8ff008fc:	3c02b002 	lui	v0,0xb002
8ff00900:	34421000 	ori	v0,v0,0x1000
8ff00904:	8c430000 	lw	v1,0(v0)
8ff00908:	3c048000 	lui	a0,0x8000
8ff0090c:	00641825 	or	v1,v1,a0
8ff00910:	ac430000 	sw	v1,0(v0)
8ff00914:	00402021 	move	a0,v0
8ff00918:	8c820000 	lw	v0,0(a0)
8ff0091c:	0440fffe 	bltz	v0,8ff00918 <dmic_init+0x34>
8ff00920:	00000000 	nop
8ff00924:	8c820000 	lw	v0,0(a0)
8ff00928:	3c034000 	lui	v1,0x4000
8ff0092c:	00431025 	or	v0,v0,v1
8ff00930:	ac820000 	sw	v0,0(a0)
8ff00934:	3c02b002 	lui	v0,0xb002
8ff00938:	34441000 	ori	a0,v0,0x1000
8ff0093c:	8c820000 	lw	v0,0(a0)
8ff00940:	00431024 	and	v0,v0,v1
8ff00944:	1440fffd 	bnez	v0,8ff0093c <dmic_init+0x58>
8ff00948:	8fbf0010 	lw	ra,16(sp)
8ff0094c:	03e00008 	jr	ra
8ff00950:	27bd0018 	addiu	sp,sp,24

8ff00954 <cpu_should_sleep>:
8ff00954:	3c02b002 	lui	v0,0xb002
8ff00958:	27bdfff8 	addiu	sp,sp,-8
8ff0095c:	34451030 	ori	a1,v0,0x1030
8ff00960:	34441038 	ori	a0,v0,0x1038
8ff00964:	3c030001 	lui	v1,0x1
8ff00968:	24020014 	li	v0,20
8ff0096c:	afa20000 	sw	v0,0(sp)
8ff00970:	0bfc025f 	j	8ff0097c <cpu_should_sleep+0x28>
8ff00974:	00000000 	nop
8ff00978:	8ca20000 	lw	v0,0(a1)
8ff0097c:	8c820000 	lw	v0,0(a0)
8ff00980:	00431024 	and	v0,v0,v1
8ff00984:	1040fffc 	beqz	v0,8ff00978 <cpu_should_sleep+0x24>
8ff00988:	3c028ff0 	lui	v0,0x8ff0
8ff0098c:	8c437170 	lw	v1,29040(v0)
8ff00990:	3c02b342 	lui	v0,0xb342
8ff00994:	34420008 	ori	v0,v0,0x8
8ff00998:	00031940 	sll	v1,v1,0x5
8ff0099c:	00621821 	addu	v1,v1,v0
8ff009a0:	8c640000 	lw	a0,0(v1)
8ff009a4:	3c028ff1 	lui	v0,0x8ff1
8ff009a8:	ac448500 	sw	a0,-31488(v0)
8ff009ac:	2405ffff 	li	a1,-1
8ff009b0:	8fa20000 	lw	v0,0(sp)
8ff009b4:	2442ffff 	addiu	v0,v0,-1
8ff009b8:	afa20000 	sw	v0,0(sp)
8ff009bc:	8fa20000 	lw	v0,0(sp)
8ff009c0:	1445fffb 	bne	v0,a1,8ff009b0 <cpu_should_sleep+0x5c>
8ff009c4:	3c02b002 	lui	v0,0xb002
8ff009c8:	34421038 	ori	v0,v0,0x1038
8ff009cc:	8c420000 	lw	v0,0(v0)
8ff009d0:	3042007f 	andi	v0,v0,0x7f
8ff009d4:	2c42002c 	sltiu	v0,v0,44
8ff009d8:	10400004 	beqz	v0,8ff009ec <cpu_should_sleep+0x98>
8ff009dc:	00000000 	nop
8ff009e0:	8c620000 	lw	v0,0(v1)
8ff009e4:	00821026 	xor	v0,a0,v0
8ff009e8:	2c420001 	sltiu	v0,v0,1
8ff009ec:	03e00008 	jr	ra
8ff009f0:	27bd0008 	addiu	sp,sp,8

8ff009f4 <dmic_init_mode>:
8ff009f4:	27bdffe8 	addiu	sp,sp,-24
8ff009f8:	afb00010 	sw	s0,16(sp)
8ff009fc:	afbf0014 	sw	ra,20(sp)
8ff00a00:	0ffc0239 	jal	8ff008e4 <dmic_init>
8ff00a04:	00808021 	move	s0,a0
8ff00a08:	24020002 	li	v0,2
8ff00a0c:	12020005 	beq	s0,v0,8ff00a24 <dmic_init_mode+0x30>
8ff00a10:	24020003 	li	v0,3
8ff00a14:	1602007a 	bne	s0,v0,8ff00c00 <dmic_init_mode+0x20c>
8ff00a18:	8fbf0014 	lw	ra,20(sp)
8ff00a1c:	0bfc02d2 	j	8ff00b48 <dmic_init_mode+0x154>
8ff00a20:	3c04b002 	lui	a0,0xb002
8ff00a24:	3c05b002 	lui	a1,0xb002
8ff00a28:	34a61000 	ori	a2,a1,0x1000
8ff00a2c:	8cc20000 	lw	v0,0(a2)
8ff00a30:	34a41034 	ori	a0,a1,0x1034
8ff00a34:	344200c0 	ori	v0,v0,0xc0
8ff00a38:	acc20000 	sw	v0,0(a2)
8ff00a3c:	8cc20000 	lw	v0,0(a2)
8ff00a40:	34a81008 	ori	t0,a1,0x1008
8ff00a44:	34421100 	ori	v0,v0,0x1100
8ff00a48:	acc20000 	sw	v0,0(a2)
8ff00a4c:	8c830000 	lw	v1,0(a0)
8ff00a50:	3c028000 	lui	v0,0x8000
8ff00a54:	34420040 	ori	v0,v0,0x40
8ff00a58:	00621825 	or	v1,v1,v0
8ff00a5c:	ac830000 	sw	v1,0(a0)
8ff00a60:	8d020000 	lw	v0,0(t0)
8ff00a64:	34a31004 	ori	v1,a1,0x1004
8ff00a68:	3442001f 	ori	v0,v0,0x1f
8ff00a6c:	ad020000 	sw	v0,0(t0)
8ff00a70:	24020009 	li	v0,9
8ff00a74:	ac620000 	sw	v0,0(v1)
8ff00a78:	8cc30000 	lw	v1,0(a2)
8ff00a7c:	3c028ff0 	lui	v0,0x8ff0
8ff00a80:	8c497190 	lw	t1,29072(v0)
8ff00a84:	34630004 	ori	v1,v1,0x4
8ff00a88:	34a21018 	ori	v0,a1,0x1018
8ff00a8c:	acc30000 	sw	v1,0(a2)
8ff00a90:	34a41010 	ori	a0,a1,0x1010
8ff00a94:	ac490000 	sw	t1,0(v0)
8ff00a98:	8c820000 	lw	v0,0(a0)
8ff00a9c:	34a71020 	ori	a3,a1,0x1020
8ff00aa0:	34420008 	ori	v0,v0,0x8
8ff00aa4:	ac820000 	sw	v0,0(a0)
8ff00aa8:	8c820000 	lw	v0,0(a0)
8ff00aac:	34a5100c 	ori	a1,a1,0x100c
8ff00ab0:	34420004 	ori	v0,v0,0x4
8ff00ab4:	ac820000 	sw	v0,0(a0)
8ff00ab8:	8c830000 	lw	v1,0(a0)
8ff00abc:	3c02fff0 	lui	v0,0xfff0
8ff00ac0:	3442ffff 	ori	v0,v0,0xffff
8ff00ac4:	00621824 	and	v1,v1,v0
8ff00ac8:	ac830000 	sw	v1,0(a0)
8ff00acc:	8c820000 	lw	v0,0(a0)
8ff00ad0:	3c030002 	lui	v1,0x2
8ff00ad4:	00431025 	or	v0,v0,v1
8ff00ad8:	ac820000 	sw	v0,0(a0)
8ff00adc:	24020005 	li	v0,5
8ff00ae0:	ace20000 	sw	v0,0(a3)
8ff00ae4:	8cc20000 	lw	v0,0(a2)
8ff00ae8:	2403fffe 	li	v1,-2
8ff00aec:	34420002 	ori	v0,v0,0x2
8ff00af0:	acc20000 	sw	v0,0(a2)
8ff00af4:	8ca20000 	lw	v0,0(a1)
8ff00af8:	3442001f 	ori	v0,v0,0x1f
8ff00afc:	aca20000 	sw	v0,0(a1)
8ff00b00:	8d020000 	lw	v0,0(t0)
8ff00b04:	00431024 	and	v0,v0,v1
8ff00b08:	ad020000 	sw	v0,0(t0)
8ff00b0c:	8d040000 	lw	a0,0(t0)
8ff00b10:	2402ffef 	li	v0,-17
8ff00b14:	00822024 	and	a0,a0,v0
8ff00b18:	24030001 	li	v1,1
8ff00b1c:	3c028ff1 	lui	v0,0x8ff1
8ff00b20:	ac4384f0 	sw	v1,-31504(v0)
8ff00b24:	3c028ff1 	lui	v0,0x8ff1
8ff00b28:	ac4084f8 	sw	zero,-31496(v0)
8ff00b2c:	3c028ff1 	lui	v0,0x8ff1
8ff00b30:	ac4984f4 	sw	t1,-31500(v0)
8ff00b34:	3c028ff1 	lui	v0,0x8ff1
8ff00b38:	ac4084fc 	sw	zero,-31492(v0)
8ff00b3c:	ad040000 	sw	a0,0(t0)
8ff00b40:	0bfc0300 	j	8ff00c00 <dmic_init_mode+0x20c>
8ff00b44:	8fbf0014 	lw	ra,20(sp)
8ff00b48:	34851000 	ori	a1,a0,0x1000
8ff00b4c:	8ca20000 	lw	v0,0(a1)
8ff00b50:	2403ff3f 	li	v1,-193
8ff00b54:	00431024 	and	v0,v0,v1
8ff00b58:	aca20000 	sw	v0,0(a1)
8ff00b5c:	8ca20000 	lw	v0,0(a1)
8ff00b60:	34861034 	ori	a2,a0,0x1034
8ff00b64:	34420040 	ori	v0,v0,0x40
8ff00b68:	aca20000 	sw	v0,0(a1)
8ff00b6c:	8ca20000 	lw	v0,0(a1)
8ff00b70:	34421100 	ori	v0,v0,0x1100
8ff00b74:	aca20000 	sw	v0,0(a1)
8ff00b78:	8cc30000 	lw	v1,0(a2)
8ff00b7c:	3c028000 	lui	v0,0x8000
8ff00b80:	34420040 	ori	v0,v0,0x40
8ff00b84:	00621825 	or	v1,v1,v0
8ff00b88:	acc30000 	sw	v1,0(a2)
8ff00b8c:	34831008 	ori	v1,a0,0x1008
8ff00b90:	8c620000 	lw	v0,0(v1)
8ff00b94:	3486100c 	ori	a2,a0,0x100c
8ff00b98:	3442001f 	ori	v0,v0,0x1f
8ff00b9c:	ac620000 	sw	v0,0(v1)
8ff00ba0:	8cc20000 	lw	v0,0(a2)
8ff00ba4:	34831004 	ori	v1,a0,0x1004
8ff00ba8:	3442001f 	ori	v0,v0,0x1f
8ff00bac:	acc20000 	sw	v0,0(a2)
8ff00bb0:	24020009 	li	v0,9
8ff00bb4:	ac620000 	sw	v0,0(v1)
8ff00bb8:	8ca20000 	lw	v0,0(a1)
8ff00bbc:	34841010 	ori	a0,a0,0x1010
8ff00bc0:	34420004 	ori	v0,v0,0x4
8ff00bc4:	aca20000 	sw	v0,0(a1)
8ff00bc8:	8c830000 	lw	v1,0(a0)
8ff00bcc:	3c02fff0 	lui	v0,0xfff0
8ff00bd0:	3442ffff 	ori	v0,v0,0xffff
8ff00bd4:	00621824 	and	v1,v1,v0
8ff00bd8:	ac830000 	sw	v1,0(a0)
8ff00bdc:	8c820000 	lw	v0,0(a0)
8ff00be0:	ac820000 	sw	v0,0(a0)
8ff00be4:	8c820000 	lw	v0,0(a0)
8ff00be8:	34420008 	ori	v0,v0,0x8
8ff00bec:	ac820000 	sw	v0,0(a0)
8ff00bf0:	8c820000 	lw	v0,0(a0)
8ff00bf4:	34420004 	ori	v0,v0,0x4
8ff00bf8:	ac820000 	sw	v0,0(a0)
8ff00bfc:	8fbf0014 	lw	ra,20(sp)
8ff00c00:	8fb00010 	lw	s0,16(sp)
8ff00c04:	00001021 	move	v0,zero
8ff00c08:	03e00008 	jr	ra
8ff00c0c:	27bd0018 	addiu	sp,sp,24

8ff00c10 <dmic_disable_tri>:
8ff00c10:	3c04b002 	lui	a0,0xb002
8ff00c14:	34851000 	ori	a1,a0,0x1000
8ff00c18:	8ca20000 	lw	v0,0(a1)
8ff00c1c:	2403fffd 	li	v1,-3
8ff00c20:	00431024 	and	v0,v0,v1
8ff00c24:	aca20000 	sw	v0,0(a1)
8ff00c28:	3483100c 	ori	v1,a0,0x100c
8ff00c2c:	8c620000 	lw	v0,0(v1)
8ff00c30:	34841008 	ori	a0,a0,0x1008
8ff00c34:	3442001f 	ori	v0,v0,0x1f
8ff00c38:	ac620000 	sw	v0,0(v1)
8ff00c3c:	8c830000 	lw	v1,0(a0)
8ff00c40:	00001021 	move	v0,zero
8ff00c44:	3463001f 	ori	v1,v1,0x1f
8ff00c48:	ac830000 	sw	v1,0(a0)
8ff00c4c:	03e00008 	jr	ra
8ff00c50:	00000000 	nop

8ff00c54 <dmic_disable>:
8ff00c54:	3c02b002 	lui	v0,0xb002
8ff00c58:	34421000 	ori	v0,v0,0x1000
8ff00c5c:	8c430000 	lw	v1,0(v0)
8ff00c60:	2404fffe 	li	a0,-2
8ff00c64:	00641824 	and	v1,v1,a0
8ff00c68:	ac430000 	sw	v1,0(v0)
8ff00c6c:	03e00008 	jr	ra
8ff00c70:	00001021 	move	v0,zero

8ff00c74 <dmic_set_samplerate>:
8ff00c74:	3c02b002 	lui	v0,0xb002
8ff00c78:	34451000 	ori	a1,v0,0x1000
8ff00c7c:	24021f40 	li	v0,8000
8ff00c80:	14820005 	bne	a0,v0,8ff00c98 <dmic_set_samplerate+0x24>
8ff00c84:	00003021 	move	a2,zero
8ff00c88:	8ca20000 	lw	v0,0(a1)
8ff00c8c:	2403ff3f 	li	v1,-193
8ff00c90:	0bfc0332 	j	8ff00cc8 <dmic_set_samplerate+0x54>
8ff00c94:	00431024 	and	v0,v0,v1
8ff00c98:	3c02b002 	lui	v0,0xb002
8ff00c9c:	34451000 	ori	a1,v0,0x1000
8ff00ca0:	24023e80 	li	v0,16000
8ff00ca4:	14820009 	bne	a0,v0,8ff00ccc <dmic_set_samplerate+0x58>
8ff00ca8:	2406ffff 	li	a2,-1
8ff00cac:	8ca20000 	lw	v0,0(a1)
8ff00cb0:	2403ff3f 	li	v1,-193
8ff00cb4:	00431024 	and	v0,v0,v1
8ff00cb8:	aca20000 	sw	v0,0(a1)
8ff00cbc:	8ca20000 	lw	v0,0(a1)
8ff00cc0:	00003021 	move	a2,zero
8ff00cc4:	34420040 	ori	v0,v0,0x40
8ff00cc8:	aca20000 	sw	v0,0(a1)
8ff00ccc:	03e00008 	jr	ra
8ff00cd0:	00c01021 	move	v0,a2

8ff00cd4 <dmic_ioctl>:
8ff00cd4:	27bdffe8 	addiu	sp,sp,-24
8ff00cd8:	24020200 	li	v0,512
8ff00cdc:	14820003 	bne	a0,v0,8ff00cec <dmic_ioctl+0x18>
8ff00ce0:	afbf0010 	sw	ra,16(sp)
8ff00ce4:	0ffc031d 	jal	8ff00c74 <dmic_set_samplerate>
8ff00ce8:	00a02021 	move	a0,a1
8ff00cec:	8fbf0010 	lw	ra,16(sp)
8ff00cf0:	00001021 	move	v0,zero
8ff00cf4:	03e00008 	jr	ra
8ff00cf8:	27bd0018 	addiu	sp,sp,24

8ff00cfc <reconfig_thr_value>:
8ff00cfc:	27bdffe8 	addiu	sp,sp,-24
8ff00d00:	3c028ff1 	lui	v0,0x8ff1
8ff00d04:	afbf0014 	sw	ra,20(sp)
8ff00d08:	afb00010 	sw	s0,16(sp)
8ff00d0c:	8c4384f0 	lw	v1,-31504(v0)
8ff00d10:	24020001 	li	v0,1
8ff00d14:	14620010 	bne	v1,v0,8ff00d58 <reconfig_thr_value+0x5c>
8ff00d18:	3c058ff1 	lui	a1,0x8ff1
8ff00d1c:	8ca384fc 	lw	v1,-31492(a1)
8ff00d20:	10600007 	beqz	v1,8ff00d40 <reconfig_thr_value+0x44>
8ff00d24:	3c048ff1 	lui	a0,0x8ff1
8ff00d28:	3c02b002 	lui	v0,0xb002
8ff00d2c:	34421018 	ori	v0,v0,0x1018
8ff00d30:	ac430000 	sw	v1,0(v0)
8ff00d34:	ac8384f4 	sw	v1,-31500(a0)
8ff00d38:	0bfc0361 	j	8ff00d84 <reconfig_thr_value+0x88>
8ff00d3c:	aca084fc 	sw	zero,-31492(a1)
8ff00d40:	8c8384f4 	lw	v1,-31500(a0)
8ff00d44:	3c02b002 	lui	v0,0xb002
8ff00d48:	34421018 	ori	v0,v0,0x1018
8ff00d4c:	ac430000 	sw	v1,0(v0)
8ff00d50:	0bfc0362 	j	8ff00d88 <reconfig_thr_value+0x8c>
8ff00d54:	8fbf0014 	lw	ra,20(sp)
8ff00d58:	24020002 	li	v0,2
8ff00d5c:	14620009 	bne	v1,v0,8ff00d84 <reconfig_thr_value+0x88>
8ff00d60:	3c108ff1 	lui	s0,0x8ff1
8ff00d64:	8e0484f8 	lw	a0,-31496(s0)
8ff00d68:	3c028ff1 	lui	v0,0x8ff1
8ff00d6c:	8c4584f4 	lw	a1,-31500(v0)
8ff00d70:	0ffc061b 	jal	8ff0186c <adjust_trigger_value>
8ff00d74:	24840001 	addiu	a0,a0,1
8ff00d78:	3c038ff1 	lui	v1,0x8ff1
8ff00d7c:	ac6284fc 	sw	v0,-31492(v1)
8ff00d80:	ae0084f8 	sw	zero,-31496(s0)
8ff00d84:	8fbf0014 	lw	ra,20(sp)
8ff00d88:	8fb00010 	lw	s0,16(sp)
8ff00d8c:	03e00008 	jr	ra
8ff00d90:	27bd0018 	addiu	sp,sp,24

8ff00d94 <dmic_handler>:
8ff00d94:	3c08b002 	lui	t0,0xb002
8ff00d98:	27bdffe0 	addiu	sp,sp,-32
8ff00d9c:	afbf0018 	sw	ra,24(sp)
8ff00da0:	3506100c 	ori	a2,t0,0x100c
8ff00da4:	8cc20000 	lw	v0,0(a2)
8ff00da8:	35071008 	ori	a3,t0,0x1008
8ff00dac:	3442001f 	ori	v0,v0,0x1f
8ff00db0:	acc20000 	sw	v0,0(a2)
8ff00db4:	3c028ff0 	lui	v0,0x8ff0
8ff00db8:	8c437170 	lw	v1,29040(v0)
8ff00dbc:	8ce20000 	lw	v0,0(a3)
8ff00dc0:	00031940 	sll	v1,v1,0x5
8ff00dc4:	34420011 	ori	v0,v0,0x11
8ff00dc8:	ace20000 	sw	v0,0(a3)
8ff00dcc:	3c02b342 	lui	v0,0xb342
8ff00dd0:	34420008 	ori	v0,v0,0x8
8ff00dd4:	00621821 	addu	v1,v1,v0
8ff00dd8:	3c098ff1 	lui	t1,0x8ff1
8ff00ddc:	8c630000 	lw	v1,0(v1)
8ff00de0:	3c028ff1 	lui	v0,0x8ff1
8ff00de4:	8d2584f0 	lw	a1,-31504(t1)
8ff00de8:	ac438500 	sw	v1,-31488(v0)
8ff00dec:	24020001 	li	v0,1
8ff00df0:	14a20010 	bne	a1,v0,8ff00e34 <dmic_handler+0xa0>
8ff00df4:	30820001 	andi	v0,a0,0x1
8ff00df8:	1040000b 	beqz	v0,8ff00e28 <dmic_handler+0x94>
8ff00dfc:	35031018 	ori	v1,t0,0x1018
8ff00e00:	8cc20000 	lw	v0,0(a2)
8ff00e04:	2403ffee 	li	v1,-18
8ff00e08:	3442001f 	ori	v0,v0,0x1f
8ff00e0c:	acc20000 	sw	v0,0(a2)
8ff00e10:	8ce20000 	lw	v0,0(a3)
8ff00e14:	24040002 	li	a0,2
8ff00e18:	00431024 	and	v0,v0,v1
8ff00e1c:	ace20000 	sw	v0,0(a3)
8ff00e20:	0bfc03d0 	j	8ff00f40 <dmic_handler+0x1ac>
8ff00e24:	8fbf0018 	lw	ra,24(sp)
8ff00e28:	24020002 	li	v0,2
8ff00e2c:	ad2284f0 	sw	v0,-31504(t1)
8ff00e30:	ac600000 	sw	zero,0(v1)
8ff00e34:	0ffc07b4 	jal	8ff01ed0 <process_dma_data_3>
8ff00e38:	00000000 	nop
8ff00e3c:	afa20010 	sw	v0,16(sp)
8ff00e40:	8fa20010 	lw	v0,16(sp)
8ff00e44:	24050001 	li	a1,1
8ff00e48:	1045003c 	beq	v0,a1,8ff00f3c <dmic_handler+0x1a8>
8ff00e4c:	24040001 	li	a0,1
8ff00e50:	8fa30010 	lw	v1,16(sp)
8ff00e54:	24020003 	li	v0,3
8ff00e58:	14620018 	bne	v1,v0,8ff00ebc <dmic_handler+0x128>
8ff00e5c:	24020005 	li	v0,5
8ff00e60:	3c05b002 	lui	a1,0xb002
8ff00e64:	34a31020 	ori	v1,a1,0x1020
8ff00e68:	ac620000 	sw	v0,0(v1)
8ff00e6c:	34a31000 	ori	v1,a1,0x1000
8ff00e70:	8c620000 	lw	v0,0(v1)
8ff00e74:	34a51008 	ori	a1,a1,0x1008
8ff00e78:	344200c0 	ori	v0,v0,0xc0
8ff00e7c:	ac620000 	sw	v0,0(v1)
8ff00e80:	3c028ff0 	lui	v0,0x8ff0
8ff00e84:	8c447170 	lw	a0,29040(v0)
8ff00e88:	8ca20000 	lw	v0,0(a1)
8ff00e8c:	2403ffee 	li	v1,-18
8ff00e90:	00431024 	and	v0,v0,v1
8ff00e94:	aca20000 	sw	v0,0(a1)
8ff00e98:	3c02b342 	lui	v0,0xb342
8ff00e9c:	34420008 	ori	v0,v0,0x8
8ff00ea0:	00042140 	sll	a0,a0,0x5
8ff00ea4:	00822021 	addu	a0,a0,v0
8ff00ea8:	8c830000 	lw	v1,0(a0)
8ff00eac:	3c028ff1 	lui	v0,0x8ff1
8ff00eb0:	24040003 	li	a0,3
8ff00eb4:	0bfc03cf 	j	8ff00f3c <dmic_handler+0x1a8>
8ff00eb8:	ac438500 	sw	v1,-31488(v0)
8ff00ebc:	8fa30010 	lw	v1,16(sp)
8ff00ec0:	24020002 	li	v0,2
8ff00ec4:	1462001c 	bne	v1,v0,8ff00f38 <dmic_handler+0x1a4>
8ff00ec8:	3c048ff1 	lui	a0,0x8ff1
8ff00ecc:	8c8284f8 	lw	v0,-31496(a0)
8ff00ed0:	3c038ff1 	lui	v1,0x8ff1
8ff00ed4:	24420001 	addiu	v0,v0,1
8ff00ed8:	ac6584f0 	sw	a1,-31504(v1)
8ff00edc:	0ffc033f 	jal	8ff00cfc <reconfig_thr_value>
8ff00ee0:	ac8284f8 	sw	v0,-31496(a0)
8ff00ee4:	3c04b002 	lui	a0,0xb002
8ff00ee8:	34831020 	ori	v1,a0,0x1020
8ff00eec:	24020005 	li	v0,5
8ff00ef0:	ac620000 	sw	v0,0(v1)
8ff00ef4:	34831010 	ori	v1,a0,0x1010
8ff00ef8:	8c620000 	lw	v0,0(v1)
8ff00efc:	34851000 	ori	a1,a0,0x1000
8ff00f00:	34420001 	ori	v0,v0,0x1
8ff00f04:	ac620000 	sw	v0,0(v1)
8ff00f08:	8ca20000 	lw	v0,0(a1)
8ff00f0c:	3483100c 	ori	v1,a0,0x100c
8ff00f10:	344200c0 	ori	v0,v0,0xc0
8ff00f14:	aca20000 	sw	v0,0(a1)
8ff00f18:	8c620000 	lw	v0,0(v1)
8ff00f1c:	34841008 	ori	a0,a0,0x1008
8ff00f20:	3442001f 	ori	v0,v0,0x1f
8ff00f24:	ac620000 	sw	v0,0(v1)
8ff00f28:	8c820000 	lw	v0,0(a0)
8ff00f2c:	2403ffee 	li	v1,-18
8ff00f30:	00431024 	and	v0,v0,v1
8ff00f34:	ac820000 	sw	v0,0(a0)
8ff00f38:	24040002 	li	a0,2
8ff00f3c:	8fbf0018 	lw	ra,24(sp)
8ff00f40:	00801021 	move	v0,a0
8ff00f44:	03e00008 	jr	ra
8ff00f48:	27bd0020 	addiu	sp,sp,32

8ff00f4c <dmic_enable>:
8ff00f4c:	3c04b002 	lui	a0,0xb002
8ff00f50:	34841000 	ori	a0,a0,0x1000
8ff00f54:	8c830000 	lw	v1,0(a0)
8ff00f58:	00001021 	move	v0,zero
8ff00f5c:	34630001 	ori	v1,v1,0x1
8ff00f60:	ac830000 	sw	v1,0(a0)
8ff00f64:	03e00008 	jr	ra
8ff00f68:	00000000 	nop
8ff00f6c:	00000000 	nop

8ff00f70 <dma_set_channel>:
8ff00f70:	3c028ff0 	lui	v0,0x8ff0
8ff00f74:	03e00008 	jr	ra
8ff00f78:	ac447180 	sw	a0,29056(v0)

8ff00f7c <dma_stop>:
8ff00f7c:	0bfc05f7 	j	8ff017dc <pdma_end>
8ff00f80:	00000000 	nop

8ff00f84 <dma_close>:
8ff00f84:	3c028ff0 	lui	v0,0x8ff0
8ff00f88:	0bfc05f7 	j	8ff017dc <pdma_end>
8ff00f8c:	8c447180 	lw	a0,29056(v0)

8ff00f90 <dma_start>:
8ff00f90:	0bfc05e0 	j	8ff01780 <pdma_start>
8ff00f94:	00000000 	nop

8ff00f98 <build_circ_descs>:
8ff00f98:	27bdffe0 	addiu	sp,sp,-32
8ff00f9c:	afb20018 	sw	s2,24(sp)
8ff00fa0:	afb10014 	sw	s1,20(sp)
8ff00fa4:	afbf001c 	sw	ra,28(sp)
8ff00fa8:	afb00010 	sw	s0,16(sp)
8ff00fac:	00809021 	move	s2,a0
8ff00fb0:	00805821 	move	t3,a0
8ff00fb4:	00008821 	move	s1,zero
8ff00fb8:	3c028ff1 	lui	v0,0x8ff1
8ff00fbc:	8c428514 	lw	v0,-31468(v0)
8ff00fc0:	3c038ff1 	lui	v1,0x8ff1
8ff00fc4:	246a851c 	addiu	t2,v1,-31460
8ff00fc8:	24440003 	addiu	a0,v0,3
8ff00fcc:	28430000 	slti	v1,v0,0
8ff00fd0:	0083100b 	movn	v0,a0,v1
8ff00fd4:	8d480040 	lw	t0,64(t2)
8ff00fd8:	00021083 	sra	v0,v0,0x2
8ff00fdc:	0048001b 	divu	zero,v0,t0
8ff00fe0:	010001f4 	teq	t0,zero,0x7
8ff00fe4:	3c038ff1 	lui	v1,0x8ff1
8ff00fe8:	8c698510 	lw	t1,-31472(v1)
8ff00fec:	3c038ff1 	lui	v1,0x8ff1
8ff00ff0:	8c638518 	lw	v1,-31464(v1)
8ff00ff4:	3c071fff 	lui	a3,0x1fff
8ff00ff8:	34e7ffff 	ori	a3,a3,0xffff
8ff00ffc:	00671824 	and	v1,v1,a3
8ff01000:	00021082 	srl	v0,v0,0x2
8ff01004:	00021080 	sll	v0,v0,0x2
8ff01008:	ad43000c 	sw	v1,12(t2)
8ff0100c:	24030001 	li	v1,1
8ff01010:	ad430038 	sw	v1,56(t2)
8ff01014:	25700020 	addiu	s0,t3,32
8ff01018:	01602821 	move	a1,t3
8ff0101c:	01402021 	move	a0,t2
8ff01020:	00004012 	mflo	t0
8ff01024:	72221802 	mul	v1,s1,v0
8ff01028:	ad480008 	sw	t0,8(t2)
8ff0102c:	00691021 	addu	v0,v1,t1
8ff01030:	00471024 	and	v0,v0,a3
8ff01034:	ad420010 	sw	v0,16(t2)
8ff01038:	24020003 	li	v0,3
8ff0103c:	12220008 	beq	s1,v0,8ff01060 <build_circ_descs+0xc8>
8ff01040:	02003021 	move	a2,s0
8ff01044:	0ffc0550 	jal	8ff01540 <build_one_desc>
8ff01048:	26310001 	addiu	s1,s1,1
8ff0104c:	24020004 	li	v0,4
8ff01050:	1222000c 	beq	s1,v0,8ff01084 <build_circ_descs+0xec>
8ff01054:	02005821 	move	t3,s0
8ff01058:	0bfc03ef 	j	8ff00fbc <build_circ_descs+0x24>
8ff0105c:	3c028ff1 	lui	v0,0x8ff1
8ff01060:	02403021 	move	a2,s2
8ff01064:	8fbf001c 	lw	ra,28(sp)
8ff01068:	8fb20018 	lw	s2,24(sp)
8ff0106c:	8fb10014 	lw	s1,20(sp)
8ff01070:	8fb00010 	lw	s0,16(sp)
8ff01074:	01402021 	move	a0,t2
8ff01078:	01602821 	move	a1,t3
8ff0107c:	0bfc0550 	j	8ff01540 <build_one_desc>
8ff01080:	27bd0020 	addiu	sp,sp,32
8ff01084:	8fbf001c 	lw	ra,28(sp)
8ff01088:	8fb20018 	lw	s2,24(sp)
8ff0108c:	8fb10014 	lw	s1,20(sp)
8ff01090:	8fb00010 	lw	s0,16(sp)
8ff01094:	03e00008 	jr	ra
8ff01098:	27bd0020 	addiu	sp,sp,32

8ff0109c <dma_config_early_sleep>:
8ff0109c:	27bdffd8 	addiu	sp,sp,-40
8ff010a0:	3c028ff1 	lui	v0,0x8ff1
8ff010a4:	afb3001c 	sw	s3,28(sp)
8ff010a8:	afb20018 	sw	s2,24(sp)
8ff010ac:	afb10014 	sw	s1,20(sp)
8ff010b0:	afb00010 	sw	s0,16(sp)
8ff010b4:	24538584 	addiu	s3,v0,-31356
8ff010b8:	00808021 	move	s0,a0
8ff010bc:	00009021 	move	s2,zero
8ff010c0:	00808821 	move	s1,a0
8ff010c4:	0bfc0451 	j	8ff01144 <dma_config_early_sleep+0xa8>
8ff010c8:	afbf0020 	sw	ra,32(sp)
8ff010cc:	3c028ff1 	lui	v0,0x8ff1
8ff010d0:	8c428518 	lw	v0,-31464(v0)
8ff010d4:	8e230000 	lw	v1,0(s1)
8ff010d8:	00481024 	and	v0,v0,t0
8ff010dc:	00681824 	and	v1,v1,t0
8ff010e0:	ace2000c 	sw	v0,12(a3)
8ff010e4:	ace30010 	sw	v1,16(a3)
8ff010e8:	24020001 	li	v0,1
8ff010ec:	ace20038 	sw	v0,56(a3)
8ff010f0:	8e020024 	lw	v0,36(s0)
8ff010f4:	8ce40040 	lw	a0,64(a3)
8ff010f8:	0045001b 	divu	zero,v0,a1
8ff010fc:	00a001f4 	teq	a1,zero,0x7
8ff01100:	00001012 	mflo	v0
8ff01104:	0044001b 	divu	zero,v0,a0
8ff01108:	008001f4 	teq	a0,zero,0x7
8ff0110c:	00001012 	mflo	v0
8ff01110:	ace20008 	sw	v0,8(a3)
8ff01114:	8e020020 	lw	v0,32(s0)
8ff01118:	2442ffff 	addiu	v0,v0,-1
8ff0111c:	12420002 	beq	s2,v0,8ff01128 <dma_config_early_sleep+0x8c>
8ff01120:	00000000 	nop
8ff01124:	02603021 	move	a2,s3
8ff01128:	3c048ff1 	lui	a0,0x8ff1
8ff0112c:	2665ffe0 	addiu	a1,s3,-32
8ff01130:	0ffc0550 	jal	8ff01540 <build_one_desc>
8ff01134:	2484851c 	addiu	a0,a0,-31460
8ff01138:	26520001 	addiu	s2,s2,1
8ff0113c:	26310004 	addiu	s1,s1,4
8ff01140:	26730020 	addiu	s3,s3,32
8ff01144:	3c021fff 	lui	v0,0x1fff
8ff01148:	8e050020 	lw	a1,32(s0)
8ff0114c:	3448ffff 	ori	t0,v0,0xffff
8ff01150:	3c028ff1 	lui	v0,0x8ff1
8ff01154:	24468564 	addiu	a2,v0,-31388
8ff01158:	3c048ff1 	lui	a0,0x8ff1
8ff0115c:	0245102b 	sltu	v0,s2,a1
8ff01160:	1440ffda 	bnez	v0,8ff010cc <dma_config_early_sleep+0x30>
8ff01164:	2487851c 	addiu	a3,a0,-31460
8ff01168:	8fbf0020 	lw	ra,32(sp)
8ff0116c:	8fb3001c 	lw	s3,28(sp)
8ff01170:	8fb20018 	lw	s2,24(sp)
8ff01174:	8fb10014 	lw	s1,20(sp)
8ff01178:	8fb00010 	lw	s0,16(sp)
8ff0117c:	00e02021 	move	a0,a3
8ff01180:	0bfc0577 	j	8ff015dc <pdma_config>
8ff01184:	27bd0028 	addiu	sp,sp,40

8ff01188 <dma_config_normal>:
8ff01188:	27bdffe8 	addiu	sp,sp,-24
8ff0118c:	3c04b000 	lui	a0,0xb000
8ff01190:	afbf0014 	sw	ra,20(sp)
8ff01194:	afb00010 	sw	s0,16(sp)
8ff01198:	34840020 	ori	a0,a0,0x20
8ff0119c:	3c028ff1 	lui	v0,0x8ff1
8ff011a0:	8c830000 	lw	v1,0(a0)
8ff011a4:	8c4584d4 	lw	a1,-31532(v0)
8ff011a8:	3c02ffdf 	lui	v0,0xffdf
8ff011ac:	3442ffff 	ori	v0,v0,0xffff
8ff011b0:	00621824 	and	v1,v1,v0
8ff011b4:	ac830000 	sw	v1,0(a0)
8ff011b8:	10a00003 	beqz	a1,8ff011c8 <dma_config_normal+0x40>
8ff011bc:	3c038ff1 	lui	v1,0x8ff1
8ff011c0:	0bfc0475 	j	8ff011d4 <dma_config_normal+0x4c>
8ff011c4:	ac658560 	sw	a1,-31392(v1)
8ff011c8:	3c02b342 	lui	v0,0xb342
8ff011cc:	34424000 	ori	v0,v0,0x4000
8ff011d0:	ac628560 	sw	v0,-31392(v1)
8ff011d4:	3c028ff1 	lui	v0,0x8ff1
8ff011d8:	8c4484cc 	lw	a0,-31540(v0)
8ff011dc:	3c02b002 	lui	v0,0xb002
8ff011e0:	34421030 	ori	v0,v0,0x1030
8ff011e4:	3c038ff1 	lui	v1,0x8ff1
8ff011e8:	3c058ff1 	lui	a1,0x8ff1
8ff011ec:	3c068ff1 	lui	a2,0x8ff1
8ff011f0:	10800005 	beqz	a0,8ff01208 <dma_config_normal+0x80>
8ff011f4:	ac628518 	sw	v0,-31464(v1)
8ff011f8:	3c028ff1 	lui	v0,0x8ff1
8ff011fc:	8c4284d0 	lw	v0,-31536(v0)
8ff01200:	0bfc0486 	j	8ff01218 <dma_config_normal+0x90>
8ff01204:	aca48510 	sw	a0,-31472(a1)
8ff01208:	3c02b342 	lui	v0,0xb342
8ff0120c:	34422000 	ori	v0,v0,0x2000
8ff01210:	aca28510 	sw	v0,-31472(a1)
8ff01214:	24021000 	li	v0,4096
8ff01218:	acc28514 	sw	v0,-31468(a2)
8ff0121c:	3c028ff1 	lui	v0,0x8ff1
8ff01220:	8c448560 	lw	a0,-31392(v0)
8ff01224:	3c028ff0 	lui	v0,0x8ff0
8ff01228:	3c068ff1 	lui	a2,0x8ff1
8ff0122c:	8c477180 	lw	a3,29056(v0)
8ff01230:	24020005 	li	v0,5
8ff01234:	24d0851c 	addiu	s0,a2,-31460
8ff01238:	acc2851c 	sw	v0,-31460(a2)
8ff0123c:	3c031fff 	lui	v1,0x1fff
8ff01240:	24020040 	li	v0,64
8ff01244:	ae02001c 	sw	v0,28(s0)
8ff01248:	3463ffff 	ori	v1,v1,0xffff
8ff0124c:	24020006 	li	v0,6
8ff01250:	24050001 	li	a1,1
8ff01254:	00831824 	and	v1,a0,v1
8ff01258:	ae020020 	sw	v0,32(s0)
8ff0125c:	24020080 	li	v0,128
8ff01260:	ae070004 	sw	a3,4(s0)
8ff01264:	ae020040 	sw	v0,64(s0)
8ff01268:	ae03003c 	sw	v1,60(s0)
8ff0126c:	ae050024 	sw	a1,36(s0)
8ff01270:	ae050014 	sw	a1,20(s0)
8ff01274:	ae000018 	sw	zero,24(s0)
8ff01278:	ae000028 	sw	zero,40(s0)
8ff0127c:	ae05002c 	sw	a1,44(s0)
8ff01280:	ae050030 	sw	a1,48(s0)
8ff01284:	0ffc03e6 	jal	8ff00f98 <build_circ_descs>
8ff01288:	ae000034 	sw	zero,52(s0)
8ff0128c:	02002021 	move	a0,s0
8ff01290:	8fbf0014 	lw	ra,20(sp)
8ff01294:	8fb00010 	lw	s0,16(sp)
8ff01298:	0bfc0577 	j	8ff015dc <pdma_config>
8ff0129c:	27bd0018 	addiu	sp,sp,24

8ff012a0 <jzrtc_readl>:
8ff012a0:	3c02b000 	lui	v0,0xb000
8ff012a4:	34423000 	ori	v0,v0,0x3000
8ff012a8:	00822021 	addu	a0,a0,v0
8ff012ac:	3c050010 	lui	a1,0x10
8ff012b0:	2406ffff 	li	a2,-1
8ff012b4:	8c830000 	lw	v1,0(a0)
8ff012b8:	8c820000 	lw	v0,0(a0)
8ff012bc:	10430003 	beq	v0,v1,8ff012cc <jzrtc_readl+0x2c>
8ff012c0:	24a5ffff 	addiu	a1,a1,-1
8ff012c4:	14a6fffb 	bne	a1,a2,8ff012b4 <jzrtc_readl+0x14>
8ff012c8:	00000000 	nop
8ff012cc:	03e00008 	jr	ra
8ff012d0:	00601021 	move	v0,v1

8ff012d4 <wait_write_ready>:
8ff012d4:	27bdffe8 	addiu	sp,sp,-24
8ff012d8:	afb00010 	sw	s0,16(sp)
8ff012dc:	afbf0014 	sw	ra,20(sp)
8ff012e0:	3c100010 	lui	s0,0x10
8ff012e4:	0ffc04a8 	jal	8ff012a0 <jzrtc_readl>
8ff012e8:	00002021 	move	a0,zero
8ff012ec:	30420080 	andi	v0,v0,0x80
8ff012f0:	14400004 	bnez	v0,8ff01304 <wait_write_ready+0x30>
8ff012f4:	2610ffff 	addiu	s0,s0,-1
8ff012f8:	2402ffff 	li	v0,-1
8ff012fc:	1602fff9 	bne	s0,v0,8ff012e4 <wait_write_ready+0x10>
8ff01300:	00000000 	nop
8ff01304:	8fbf0014 	lw	ra,20(sp)
8ff01308:	8fb00010 	lw	s0,16(sp)
8ff0130c:	03e00008 	jr	ra
8ff01310:	27bd0018 	addiu	sp,sp,24

8ff01314 <jzrtc_writel>:
8ff01314:	3c02b000 	lui	v0,0xb000
8ff01318:	27bdffe0 	addiu	sp,sp,-32
8ff0131c:	3403a55a 	li	v1,0xa55a
8ff01320:	3442303c 	ori	v0,v0,0x303c
8ff01324:	afb20018 	sw	s2,24(sp)
8ff01328:	afb10014 	sw	s1,20(sp)
8ff0132c:	afb00010 	sw	s0,16(sp)
8ff01330:	afbf001c 	sw	ra,28(sp)
8ff01334:	ac430000 	sw	v1,0(v0)
8ff01338:	00808821 	move	s1,a0
8ff0133c:	00a09021 	move	s2,a1
8ff01340:	0ffc04b5 	jal	8ff012d4 <wait_write_ready>
8ff01344:	3c100010 	lui	s0,0x10
8ff01348:	2404003c 	li	a0,60
8ff0134c:	0ffc04a8 	jal	8ff012a0 <jzrtc_readl>
8ff01350:	2610ffff 	addiu	s0,s0,-1
8ff01354:	04400003 	bltz	v0,8ff01364 <jzrtc_writel+0x50>
8ff01358:	2402ffff 	li	v0,-1
8ff0135c:	1602fffb 	bne	s0,v0,8ff0134c <jzrtc_writel+0x38>
8ff01360:	2404003c 	li	a0,60
8ff01364:	0ffc04b5 	jal	8ff012d4 <wait_write_ready>
8ff01368:	00000000 	nop
8ff0136c:	3c02b000 	lui	v0,0xb000
8ff01370:	34423000 	ori	v0,v0,0x3000
8ff01374:	02221021 	addu	v0,s1,v0
8ff01378:	ac520000 	sw	s2,0(v0)
8ff0137c:	8fbf001c 	lw	ra,28(sp)
8ff01380:	8fb20018 	lw	s2,24(sp)
8ff01384:	8fb10014 	lw	s1,20(sp)
8ff01388:	8fb00010 	lw	s0,16(sp)
8ff0138c:	0bfc04b5 	j	8ff012d4 <wait_write_ready>
8ff01390:	27bd0020 	addiu	sp,sp,32

8ff01394 <rtc_set_alarm>:
8ff01394:	27bdffe8 	addiu	sp,sp,-24
8ff01398:	afb00010 	sw	s0,16(sp)
8ff0139c:	00808021 	move	s0,a0
8ff013a0:	afbf0014 	sw	ra,20(sp)
8ff013a4:	0ffc04a8 	jal	8ff012a0 <jzrtc_readl>
8ff013a8:	24040004 	li	a0,4
8ff013ac:	00502821 	addu	a1,v0,s0
8ff013b0:	0ffc04c5 	jal	8ff01314 <jzrtc_writel>
8ff013b4:	24040008 	li	a0,8
8ff013b8:	0ffc04a8 	jal	8ff012a0 <jzrtc_readl>
8ff013bc:	00002021 	move	a0,zero
8ff013c0:	2403ffef 	li	v1,-17
8ff013c4:	00431024 	and	v0,v0,v1
8ff013c8:	3445000c 	ori	a1,v0,0xc
8ff013cc:	0ffc04c5 	jal	8ff01314 <jzrtc_writel>
8ff013d0:	00002021 	move	a0,zero
8ff013d4:	8fbf0014 	lw	ra,20(sp)
8ff013d8:	8fb00010 	lw	s0,16(sp)
8ff013dc:	00001021 	move	v0,zero
8ff013e0:	03e00008 	jr	ra
8ff013e4:	27bd0018 	addiu	sp,sp,24

8ff013e8 <rtc_init>:
8ff013e8:	27bdffe0 	addiu	sp,sp,-32
8ff013ec:	afb10014 	sw	s1,20(sp)
8ff013f0:	24040008 	li	a0,8
8ff013f4:	3c118ff1 	lui	s1,0x8ff1
8ff013f8:	afbf0018 	sw	ra,24(sp)
8ff013fc:	afb00010 	sw	s0,16(sp)
8ff01400:	0ffc04a8 	jal	8ff012a0 <jzrtc_readl>
8ff01404:	ae208670 	sw	zero,-31120(s1)
8ff01408:	24040004 	li	a0,4
8ff0140c:	0ffc04a8 	jal	8ff012a0 <jzrtc_readl>
8ff01410:	00408021 	move	s0,v0
8ff01414:	0202802b 	sltu	s0,s0,v0
8ff01418:	12000003 	beqz	s0,8ff01428 <rtc_init+0x40>
8ff0141c:	26318670 	addiu	s1,s1,-31120
8ff01420:	0bfc050c 	j	8ff01430 <rtc_init+0x48>
8ff01424:	ae200010 	sw	zero,16(s1)
8ff01428:	24020001 	li	v0,1
8ff0142c:	ae220010 	sw	v0,16(s1)
8ff01430:	0ffc04a8 	jal	8ff012a0 <jzrtc_readl>
8ff01434:	24040008 	li	a0,8
8ff01438:	3c108ff1 	lui	s0,0x8ff1
8ff0143c:	00002021 	move	a0,zero
8ff01440:	0ffc04a8 	jal	8ff012a0 <jzrtc_readl>
8ff01444:	ae028670 	sw	v0,-31120(s0)
8ff01448:	00023102 	srl	a2,v0,0x4
8ff0144c:	000210c2 	srl	v0,v0,0x3
8ff01450:	26108670 	addiu	s0,s0,-31120
8ff01454:	30c60001 	andi	a2,a2,0x1
8ff01458:	30420001 	andi	v0,v0,0x1
8ff0145c:	24050001 	li	a1,1
8ff01460:	3c038ff1 	lui	v1,0x8ff1
8ff01464:	ae060008 	sw	a2,8(s0)
8ff01468:	2404001e 	li	a0,30
8ff0146c:	ae02000c 	sw	v0,12(s0)
8ff01470:	ae020004 	sw	v0,4(s0)
8ff01474:	0ffc04e5 	jal	8ff01394 <rtc_set_alarm>
8ff01478:	ac658688 	sw	a1,-31096(v1)
8ff0147c:	0ffc04a8 	jal	8ff012a0 <jzrtc_readl>
8ff01480:	2404002c 	li	a0,44
8ff01484:	34450001 	ori	a1,v0,0x1
8ff01488:	0ffc04c5 	jal	8ff01314 <jzrtc_writel>
8ff0148c:	2404002c 	li	a0,44
8ff01490:	8fbf0018 	lw	ra,24(sp)
8ff01494:	8fb10014 	lw	s1,20(sp)
8ff01498:	8fb00010 	lw	s0,16(sp)
8ff0149c:	00001021 	move	v0,zero
8ff014a0:	03e00008 	jr	ra
8ff014a4:	27bd0020 	addiu	sp,sp,32

8ff014a8 <rtc_exit>:
8ff014a8:	27bdffe8 	addiu	sp,sp,-24
8ff014ac:	afbf0010 	sw	ra,16(sp)
8ff014b0:	3c028ff1 	lui	v0,0x8ff1
8ff014b4:	8c458670 	lw	a1,-31120(v0)
8ff014b8:	0ffc04c5 	jal	8ff01314 <jzrtc_writel>
8ff014bc:	24040008 	li	a0,8
8ff014c0:	8fbf0010 	lw	ra,16(sp)
8ff014c4:	00001021 	move	v0,zero
8ff014c8:	03e00008 	jr	ra
8ff014cc:	27bd0018 	addiu	sp,sp,24

8ff014d0 <process_dmic_timer>:
8ff014d0:	0bfc033f 	j	8ff00cfc <reconfig_thr_value>
8ff014d4:	00000000 	nop

8ff014d8 <rtc_int_handler>:
8ff014d8:	27bdffe8 	addiu	sp,sp,-24
8ff014dc:	afbf0010 	sw	ra,16(sp)
8ff014e0:	0ffc04a8 	jal	8ff012a0 <jzrtc_readl>
8ff014e4:	24040004 	li	a0,4
8ff014e8:	3c038ff1 	lui	v1,0x8ff1
8ff014ec:	24648670 	addiu	a0,v1,-31120
8ff014f0:	8c638670 	lw	v1,-31120(v1)
8ff014f4:	2442001e 	addiu	v0,v0,30
8ff014f8:	0043102b 	sltu	v0,v0,v1
8ff014fc:	14400004 	bnez	v0,8ff01510 <rtc_int_handler+0x38>
8ff01500:	24020001 	li	v0,1
8ff01504:	8c830010 	lw	v1,16(a0)
8ff01508:	10620006 	beq	v1,v0,8ff01524 <rtc_int_handler+0x4c>
8ff0150c:	24040002 	li	a0,2
8ff01510:	0ffc0534 	jal	8ff014d0 <process_dmic_timer>
8ff01514:	00000000 	nop
8ff01518:	0ffc04e5 	jal	8ff01394 <rtc_set_alarm>
8ff0151c:	2404001e 	li	a0,30
8ff01520:	24040003 	li	a0,3
8ff01524:	8fbf0010 	lw	ra,16(sp)
8ff01528:	00801021 	move	v0,a0
8ff0152c:	03e00008 	jr	ra
8ff01530:	27bd0018 	addiu	sp,sp,24
	...

8ff01540 <build_one_desc>:
8ff01540:	8c870014 	lw	a3,20(a0)
8ff01544:	8c880020 	lw	t0,32(a0)
8ff01548:	8c83001c 	lw	v1,28(a0)
8ff0154c:	8c890018 	lw	t1,24(a0)
8ff01550:	8c8a0028 	lw	t2,40(a0)
8ff01554:	8c8c000c 	lw	t4,12(a0)
8ff01558:	00084200 	sll	t0,t0,0x8
8ff0155c:	8c8b0024 	lw	t3,36(a0)
8ff01560:	3c02a000 	lui	v0,0xa000
8ff01564:	00073d80 	sll	a3,a3,0x16
8ff01568:	00a22825 	or	a1,a1,v0
8ff0156c:	00e83825 	or	a3,a3,t0
8ff01570:	00094b00 	sll	t1,t1,0xc
8ff01574:	8c8d0038 	lw	t5,56(a0)
8ff01578:	8c880008 	lw	t0,8(a0)
8ff0157c:	00031c00 	sll	v1,v1,0x10
8ff01580:	000a5080 	sll	t2,t2,0x2
8ff01584:	3c0200ff 	lui	v0,0xff
8ff01588:	00691825 	or	v1,v1,t1
8ff0158c:	3442ffff 	ori	v0,v0,0xffff
8ff01590:	acac0004 	sw	t4,4(a1)
8ff01594:	00ea3825 	or	a3,a3,t2
8ff01598:	00063102 	srl	a2,a2,0x4
8ff0159c:	000b5840 	sll	t3,t3,0x1
8ff015a0:	01024024 	and	t0,t0,v0
8ff015a4:	8c890000 	lw	t1,0(a0)
8ff015a8:	8c820010 	lw	v0,16(a0)
8ff015ac:	006b1825 	or	v1,v1,t3
8ff015b0:	00ed3825 	or	a3,a3,t5
8ff015b4:	00063600 	sll	a2,a2,0x18
8ff015b8:	8c840034 	lw	a0,52(a0)
8ff015bc:	01064025 	or	t0,t0,a2
8ff015c0:	00671825 	or	v1,v1,a3
8ff015c4:	aca30000 	sw	v1,0(a1)
8ff015c8:	aca20008 	sw	v0,8(a1)
8ff015cc:	aca8000c 	sw	t0,12(a1)
8ff015d0:	aca90014 	sw	t1,20(a1)
8ff015d4:	03e00008 	jr	ra
8ff015d8:	aca40010 	sw	a0,16(a1)

8ff015dc <pdma_config>:
8ff015dc:	8c82002c 	lw	v0,44(a0)
8ff015e0:	00805021 	move	t2,a0
8ff015e4:	14400039 	bnez	v0,8ff016cc <pdma_config+0xf0>
8ff015e8:	8c830004 	lw	v1,4(a0)
8ff015ec:	3c08b342 	lui	t0,0xb342
8ff015f0:	00031140 	sll	v0,v1,0x5
8ff015f4:	8c83000c 	lw	v1,12(a0)
8ff015f8:	00481021 	addu	v0,v0,t0
8ff015fc:	ac430000 	sw	v1,0(v0)
8ff01600:	8c820004 	lw	v0,4(a0)
8ff01604:	8d430010 	lw	v1,16(t2)
8ff01608:	35040004 	ori	a0,t0,0x4
8ff0160c:	00021140 	sll	v0,v0,0x5
8ff01610:	00441021 	addu	v0,v0,a0
8ff01614:	ac430000 	sw	v1,0(v0)
8ff01618:	8d420004 	lw	v0,4(t2)
8ff0161c:	8d440008 	lw	a0,8(t2)
8ff01620:	35030008 	ori	v1,t0,0x8
8ff01624:	00021140 	sll	v0,v0,0x5
8ff01628:	00431021 	addu	v0,v0,v1
8ff0162c:	ac440000 	sw	a0,0(v0)
8ff01630:	8d420004 	lw	v0,4(t2)
8ff01634:	8d440000 	lw	a0,0(t2)
8ff01638:	3503000c 	ori	v1,t0,0xc
8ff0163c:	00021140 	sll	v0,v0,0x5
8ff01640:	00431021 	addu	v0,v0,v1
8ff01644:	ac440000 	sw	a0,0(v0)
8ff01648:	8d420004 	lw	v0,4(t2)
8ff0164c:	35030010 	ori	v1,t0,0x10
8ff01650:	00021140 	sll	v0,v0,0x5
8ff01654:	00431021 	addu	v0,v0,v1
8ff01658:	3c038000 	lui	v1,0x8000
8ff0165c:	ac430000 	sw	v1,0(v0)
8ff01660:	8d420004 	lw	v0,4(t2)
8ff01664:	35080014 	ori	t0,t0,0x14
8ff01668:	00021140 	sll	v0,v0,0x5
8ff0166c:	00481021 	addu	v0,v0,t0
8ff01670:	ac400000 	sw	zero,0(v0)
8ff01674:	8d430014 	lw	v1,20(t2)
8ff01678:	8d440020 	lw	a0,32(t2)
8ff0167c:	8d420018 	lw	v0,24(t2)
8ff01680:	00042200 	sll	a0,a0,0x8
8ff01684:	8d46001c 	lw	a2,28(t2)
8ff01688:	8d470028 	lw	a3,40(t2)
8ff0168c:	00031d80 	sll	v1,v1,0x16
8ff01690:	00641825 	or	v1,v1,a0
8ff01694:	8d450024 	lw	a1,36(t2)
8ff01698:	8d440004 	lw	a0,4(t2)
8ff0169c:	8d490038 	lw	t1,56(t2)
8ff016a0:	00021300 	sll	v0,v0,0xc
8ff016a4:	00063400 	sll	a2,a2,0x10
8ff016a8:	00073880 	sll	a3,a3,0x2
8ff016ac:	00461025 	or	v0,v0,a2
8ff016b0:	00671825 	or	v1,v1,a3
8ff016b4:	00052840 	sll	a1,a1,0x1
8ff016b8:	00042140 	sll	a0,a0,0x5
8ff016bc:	00451025 	or	v0,v0,a1
8ff016c0:	00691825 	or	v1,v1,t1
8ff016c4:	0bfc05dc 	j	8ff01770 <pdma_config+0x194>
8ff016c8:	00882021 	addu	a0,a0,t0
8ff016cc:	3c05b342 	lui	a1,0xb342
8ff016d0:	00031140 	sll	v0,v1,0x5
8ff016d4:	34a60010 	ori	a2,a1,0x10
8ff016d8:	00461021 	addu	v0,v0,a2
8ff016dc:	ac400000 	sw	zero,0(v0)
8ff016e0:	8c820004 	lw	v0,4(a0)
8ff016e4:	8d43003c 	lw	v1,60(t2)
8ff016e8:	34a40018 	ori	a0,a1,0x18
8ff016ec:	00021140 	sll	v0,v0,0x5
8ff016f0:	00441021 	addu	v0,v0,a0
8ff016f4:	ac430000 	sw	v1,0(v0)
8ff016f8:	8d440030 	lw	a0,48(t2)
8ff016fc:	10800007 	beqz	a0,8ff0171c <pdma_config+0x140>
8ff01700:	8d430004 	lw	v1,4(t2)
8ff01704:	00031140 	sll	v0,v1,0x5
8ff01708:	00461021 	addu	v0,v0,a2
8ff0170c:	8c430000 	lw	v1,0(v0)
8ff01710:	00042780 	sll	a0,a0,0x1e
8ff01714:	0bfc05d1 	j	8ff01744 <pdma_config+0x168>
8ff01718:	00641825 	or	v1,v1,a0
8ff0171c:	00031140 	sll	v0,v1,0x5
8ff01720:	8d440000 	lw	a0,0(t2)
8ff01724:	34a3000c 	ori	v1,a1,0xc
8ff01728:	00431021 	addu	v0,v0,v1
8ff0172c:	ac440000 	sw	a0,0(v0)
8ff01730:	8d420004 	lw	v0,4(t2)
8ff01734:	34a4001c 	ori	a0,a1,0x1c
8ff01738:	00021140 	sll	v0,v0,0x5
8ff0173c:	8d430034 	lw	v1,52(t2)
8ff01740:	00441021 	addu	v0,v0,a0
8ff01744:	ac430000 	sw	v1,0(v0)
8ff01748:	3c04b342 	lui	a0,0xb342
8ff0174c:	34851008 	ori	a1,a0,0x1008
8ff01750:	8d460004 	lw	a2,4(t2)
8ff01754:	8ca20000 	lw	v0,0(a1)
8ff01758:	24030001 	li	v1,1
8ff0175c:	00c31804 	sllv	v1,v1,a2
8ff01760:	00431025 	or	v0,v0,v1
8ff01764:	aca20000 	sw	v0,0(a1)
8ff01768:	3484100c 	ori	a0,a0,0x100c
8ff0176c:	8c820000 	lw	v0,0(a0)
8ff01770:	00431025 	or	v0,v0,v1
8ff01774:	ac820000 	sw	v0,0(a0)
8ff01778:	03e00008 	jr	ra
8ff0177c:	00000000 	nop

8ff01780 <pdma_start>:
8ff01780:	3c03b342 	lui	v1,0xb342
8ff01784:	34651000 	ori	a1,v1,0x1000
8ff01788:	8ca20000 	lw	v0,0(a1)
8ff0178c:	00042140 	sll	a0,a0,0x5
8ff01790:	34420001 	ori	v0,v0,0x1
8ff01794:	34630010 	ori	v1,v1,0x10
8ff01798:	aca20000 	sw	v0,0(a1)
8ff0179c:	00832021 	addu	a0,a0,v1
8ff017a0:	8c820000 	lw	v0,0(a0)
8ff017a4:	34420001 	ori	v0,v0,0x1
8ff017a8:	ac820000 	sw	v0,0(a0)
8ff017ac:	03e00008 	jr	ra
8ff017b0:	00000000 	nop

8ff017b4 <pdma_wait>:
8ff017b4:	3c02b342 	lui	v0,0xb342
8ff017b8:	00042140 	sll	a0,a0,0x5
8ff017bc:	34420010 	ori	v0,v0,0x10
8ff017c0:	00822021 	addu	a0,a0,v0
8ff017c4:	8c820000 	lw	v0,0(a0)
8ff017c8:	30420008 	andi	v0,v0,0x8
8ff017cc:	1040fffd 	beqz	v0,8ff017c4 <pdma_wait+0x10>
8ff017d0:	00000000 	nop
8ff017d4:	03e00008 	jr	ra
8ff017d8:	00000000 	nop

8ff017dc <pdma_end>:
8ff017dc:	3c02b342 	lui	v0,0xb342
8ff017e0:	34420010 	ori	v0,v0,0x10
8ff017e4:	00042140 	sll	a0,a0,0x5
8ff017e8:	00822021 	addu	a0,a0,v0
8ff017ec:	8c820000 	lw	v0,0(a0)
8ff017f0:	2403fffe 	li	v1,-2
8ff017f4:	00431024 	and	v0,v0,v1
8ff017f8:	ac820000 	sw	v0,0(a0)
8ff017fc:	03e00008 	jr	ra
8ff01800:	00000000 	nop

8ff01804 <pdma_trans_addr>:
8ff01804:	00041140 	sll	v0,a0,0x5
8ff01808:	3c03b342 	lui	v1,0xb342
8ff0180c:	00431821 	addu	v1,v0,v1
8ff01810:	24020001 	li	v0,1
8ff01814:	14a20004 	bne	a1,v0,8ff01828 <pdma_trans_addr+0x24>
8ff01818:	00000000 	nop
8ff0181c:	8c630000 	lw	v1,0(v1)
8ff01820:	03e00008 	jr	ra
8ff01824:	00601021 	move	v0,v1
8ff01828:	3c03b342 	lui	v1,0xb342
8ff0182c:	00041140 	sll	v0,a0,0x5
8ff01830:	34630004 	ori	v1,v1,0x4
8ff01834:	00432021 	addu	a0,v0,v1
8ff01838:	24020002 	li	v0,2
8ff0183c:	14a20002 	bne	a1,v0,8ff01848 <pdma_trans_addr+0x44>
8ff01840:	00001821 	move	v1,zero
8ff01844:	8c830000 	lw	v1,0(a0)
8ff01848:	00601021 	move	v0,v1
8ff0184c:	03e00008 	jr	ra
8ff01850:	00000000 	nop
	...

8ff01860 <quantity_tri>:
8ff01860:	28820002 	slti	v0,a0,2
8ff01864:	03e00008 	jr	ra
8ff01868:	38420001 	xori	v0,v0,0x1

8ff0186c <adjust_trigger_value>:
8ff0186c:	3c028ff0 	lui	v0,0x8ff0
8ff01870:	28840002 	slti	a0,a0,2
8ff01874:	10800003 	beqz	a0,8ff01884 <adjust_trigger_value+0x18>
8ff01878:	24437190 	addiu	v1,v0,29072
8ff0187c:	03e00008 	jr	ra
8ff01880:	8c620004 	lw	v0,4(v1)
8ff01884:	03e00008 	jr	ra
8ff01888:	8c427190 	lw	v0,29072(v0)
8ff0188c:	00000000 	nop

8ff01890 <wakeup_reset_fifo>:
8ff01890:	3c028ff1 	lui	v0,0x8ff1
8ff01894:	2442d724 	addiu	v0,v0,-10460
8ff01898:	3c038ff1 	lui	v1,0x8ff1
8ff0189c:	ac400008 	sw	zero,8(v0)
8ff018a0:	ac6086a0 	sw	zero,-31072(v1)
8ff018a4:	03e00008 	jr	ra
8ff018a8:	ac400004 	sw	zero,4(v0)

8ff018ac <wakeup_close>:
8ff018ac:	03e00008 	jr	ra
8ff018b0:	00001021 	move	v0,zero

8ff018b4 <get_valid_bytes>:
8ff018b4:	27bdffe8 	addiu	sp,sp,-24
8ff018b8:	afbf0010 	sw	ra,16(sp)
8ff018bc:	3c028ff0 	lui	v0,0x8ff0
8ff018c0:	8c447170 	lw	a0,29040(v0)
8ff018c4:	0ffc0601 	jal	8ff01804 <pdma_trans_addr>
8ff018c8:	24050002 	li	a1,2
8ff018cc:	3c058ff1 	lui	a1,0x8ff1
8ff018d0:	8ca6d724 	lw	a2,-10460(a1)
8ff018d4:	3c03a000 	lui	v1,0xa000
8ff018d8:	24a5d724 	addiu	a1,a1,-10460
8ff018dc:	00432025 	or	a0,v0,v1
8ff018e0:	00862023 	subu	a0,a0,a2
8ff018e4:	8ca3000c 	lw	v1,12(a1)
8ff018e8:	8ca20008 	lw	v0,8(a1)
8ff018ec:	aca40004 	sw	a0,4(a1)
8ff018f0:	00821023 	subu	v0,a0,v0
8ff018f4:	2463ffff 	addiu	v1,v1,-1
8ff018f8:	8fbf0010 	lw	ra,16(sp)
8ff018fc:	00431024 	and	v0,v0,v1
8ff01900:	03e00008 	jr	ra
8ff01904:	27bd0018 	addiu	sp,sp,24

8ff01908 <wakeup_open>:
8ff01908:	27bdffc8 	addiu	sp,sp,-56
8ff0190c:	24025000 	li	v0,20480
8ff01910:	afa2001c 	sw	v0,28(sp)
8ff01914:	3c038ff1 	lui	v1,0x8ff1
8ff01918:	24020026 	li	v0,38
8ff0191c:	2463d6c0 	addiu	v1,v1,-10560
8ff01920:	a7a20018 	sh	v0,24(sp)
8ff01924:	3c088ff1 	lui	t0,0x8ff1
8ff01928:	3c028ff1 	lui	v0,0x8ff1
8ff0192c:	afb40030 	sw	s4,48(sp)
8ff01930:	afb3002c 	sw	s3,44(sp)
8ff01934:	afb20028 	sw	s2,40(sp)
8ff01938:	afb10024 	sw	s1,36(sp)
8ff0193c:	afb00020 	sw	s0,32(sp)
8ff01940:	250886c0 	addiu	t0,t0,-31040
8ff01944:	afbf0034 	sw	ra,52(sp)
8ff01948:	ac43d720 	sw	v1,-10464(v0)
8ff0194c:	3c028ff3 	lui	v0,0x8ff3
8ff01950:	00603021 	move	a2,v1
8ff01954:	27a5001c 	addiu	a1,sp,28
8ff01958:	27a70018 	addiu	a3,sp,24
8ff0195c:	24428000 	addiu	v0,v0,-32768
8ff01960:	01002021 	move	a0,t0
8ff01964:	3c118ff1 	lui	s1,0x8ff1
8ff01968:	3c128ff1 	lui	s2,0x8ff1
8ff0196c:	afa20010 	sw	v0,16(sp)
8ff01970:	ae28d700 	sw	t0,-10496(s1)
8ff01974:	0ffc0a96 	jal	8ff02a58 <IvwCreate>
8ff01978:	afa00014 	sw	zero,20(sp)
8ff0197c:	3c148ff1 	lui	s4,0x8ff1
8ff01980:	3c138ff1 	lui	s3,0x8ff1
8ff01984:	2650d724 	addiu	s0,s2,-10460
8ff01988:	24060025 	li	a2,37
8ff0198c:	00003821 	move	a3,zero
8ff01990:	14400021 	bnez	v0,8ff01a18 <wakeup_open+0x110>
8ff01994:	240507db 	li	a1,2011
8ff01998:	8e24d700 	lw	a0,-10496(s1)
8ff0199c:	0ffc0874 	jal	8ff021d0 <IvwSetParam>
8ff019a0:	afa00010 	sw	zero,16(sp)
8ff019a4:	3c028ff0 	lui	v0,0x8ff0
8ff019a8:	8c447170 	lw	a0,29040(v0)
8ff019ac:	8e638510 	lw	v1,-31472(s3)
8ff019b0:	8e828514 	lw	v0,-31468(s4)
8ff019b4:	24050002 	li	a1,2
8ff019b8:	ae43d724 	sw	v1,-10460(s2)
8ff019bc:	0ffc0601 	jal	8ff01804 <pdma_trans_addr>
8ff019c0:	ae02000c 	sw	v0,12(s0)
8ff019c4:	00402021 	move	a0,v0
8ff019c8:	8e638510 	lw	v1,-31472(s3)
8ff019cc:	3c021fff 	lui	v0,0x1fff
8ff019d0:	3445ffff 	ori	a1,v0,0xffff
8ff019d4:	00651024 	and	v0,v1,a1
8ff019d8:	0082102b 	sltu	v0,a0,v0
8ff019dc:	1440000b 	bnez	v0,8ff01a0c <wakeup_open+0x104>
8ff019e0:	8e828514 	lw	v0,-31468(s4)
8ff019e4:	00621021 	addu	v0,v1,v0
8ff019e8:	00451024 	and	v0,v0,a1
8ff019ec:	3c03a000 	lui	v1,0xa000
8ff019f0:	0044102b 	sltu	v0,v0,a0
8ff019f4:	14400005 	bnez	v0,8ff01a0c <wakeup_open+0x104>
8ff019f8:	00831825 	or	v1,a0,v1
8ff019fc:	8e42d724 	lw	v0,-10460(s2)
8ff01a00:	00621023 	subu	v0,v1,v0
8ff01a04:	0bfc0684 	j	8ff01a10 <wakeup_open+0x108>
8ff01a08:	ae020004 	sw	v0,4(s0)
8ff01a0c:	ae000004 	sw	zero,4(s0)
8ff01a10:	8e020004 	lw	v0,4(s0)
8ff01a14:	ae020008 	sw	v0,8(s0)
8ff01a18:	8fbf0034 	lw	ra,52(sp)
8ff01a1c:	8fb40030 	lw	s4,48(sp)
8ff01a20:	8fb3002c 	lw	s3,44(sp)
8ff01a24:	8fb20028 	lw	s2,40(sp)
8ff01a28:	8fb10024 	lw	s1,36(sp)
8ff01a2c:	8fb00020 	lw	s0,32(sp)
8ff01a30:	00001021 	move	v0,zero
8ff01a34:	03e00008 	jr	ra
8ff01a38:	27bd0038 	addiu	sp,sp,56

8ff01a3c <send_data_to_process>:
8ff01a3c:	3c02094f 	lui	v0,0x94f
8ff01a40:	00061882 	srl	v1,a2,0x2
8ff01a44:	34422095 	ori	v0,v0,0x2095
8ff01a48:	00620019 	multu	v1,v0
8ff01a4c:	27bdffb8 	addiu	sp,sp,-72
8ff01a50:	00001810 	mfhi	v1
8ff01a54:	afb5003c 	sw	s5,60(sp)
8ff01a58:	afb40038 	sw	s4,56(sp)
8ff01a5c:	afb30034 	sw	s3,52(sp)
8ff01a60:	afb20030 	sw	s2,48(sp)
8ff01a64:	afb1002c 	sw	s1,44(sp)
8ff01a68:	afb00028 	sw	s0,40(sp)
8ff01a6c:	00c09821 	move	s3,a2
8ff01a70:	afbf0040 	sw	ra,64(sp)
8ff01a74:	0080a821 	move	s5,a0
8ff01a78:	a7a00018 	sh	zero,24(sp)
8ff01a7c:	a7a0001a 	sh	zero,26(sp)
8ff01a80:	a7a0001c 	sh	zero,28(sp)
8ff01a84:	afa00020 	sw	zero,32(sp)
8ff01a88:	afa00024 	sw	zero,36(sp)
8ff01a8c:	00039042 	srl	s2,v1,0x1
8ff01a90:	00a08021 	move	s0,a1
8ff01a94:	2411006e 	li	s1,110
8ff01a98:	0000a021 	move	s4,zero
8ff01a9c:	00003021 	move	a2,zero
8ff01aa0:	00111040 	sll	v0,s1,0x1
8ff01aa4:	02a02021 	move	a0,s5
8ff01aa8:	14d20006 	bne	a2,s2,8ff01ac4 <send_data_to_process+0x88>
8ff01aac:	02002821 	move	a1,s0
8ff01ab0:	0262001b 	divu	zero,s3,v0
8ff01ab4:	004001f4 	teq	v0,zero,0x7
8ff01ab8:	00001810 	mfhi	v1
8ff01abc:	10600018 	beqz	v1,8ff01b20 <send_data_to_process+0xe4>
8ff01ac0:	00038842 	srl	s1,v1,0x1
8ff01ac4:	0ffc0978 	jal	8ff025e0 <IvwAppendAudioData>
8ff01ac8:	3226ffff 	andi	a2,s1,0xffff
8ff01acc:	27a20020 	addiu	v0,sp,32
8ff01ad0:	02a02021 	move	a0,s5
8ff01ad4:	27a6001a 	addiu	a2,sp,26
8ff01ad8:	afa20010 	sw	v0,16(sp)
8ff01adc:	27a50018 	addiu	a1,sp,24
8ff01ae0:	27a20024 	addiu	v0,sp,36
8ff01ae4:	27a7001c 	addiu	a3,sp,28
8ff01ae8:	0ffc094e 	jal	8ff02538 <IvwRunStepEx>
8ff01aec:	afa20014 	sw	v0,20(sp)
8ff01af0:	00111840 	sll	v1,s1,0x1
8ff01af4:	02038021 	addu	s0,s0,v1
8ff01af8:	26860001 	addiu	a2,s4,1
8ff01afc:	24030032 	li	v1,50
8ff01b00:	10430005 	beq	v0,v1,8ff01b18 <send_data_to_process+0xdc>
8ff01b04:	0246202b 	sltu	a0,s2,a2
8ff01b08:	14800005 	bnez	a0,8ff01b20 <send_data_to_process+0xe4>
8ff01b0c:	00c0a021 	move	s4,a2
8ff01b10:	0bfc06a9 	j	8ff01aa4 <send_data_to_process+0x68>
8ff01b14:	00111040 	sll	v0,s1,0x1
8ff01b18:	0bfc06c9 	j	8ff01b24 <send_data_to_process+0xe8>
8ff01b1c:	24020032 	li	v0,50
8ff01b20:	00001021 	move	v0,zero
8ff01b24:	8fbf0040 	lw	ra,64(sp)
8ff01b28:	8fb5003c 	lw	s5,60(sp)
8ff01b2c:	8fb40038 	lw	s4,56(sp)
8ff01b30:	8fb30034 	lw	s3,52(sp)
8ff01b34:	8fb20030 	lw	s2,48(sp)
8ff01b38:	8fb1002c 	lw	s1,44(sp)
8ff01b3c:	8fb00028 	lw	s0,40(sp)
8ff01b40:	03e00008 	jr	ra
8ff01b44:	27bd0048 	addiu	sp,sp,72

8ff01b48 <process_buffer_data>:
8ff01b48:	27bdffe8 	addiu	sp,sp,-24
8ff01b4c:	3c02a000 	lui	v0,0xa000
8ff01b50:	00821825 	or	v1,a0,v0
8ff01b54:	afbf0010 	sw	ra,16(sp)
8ff01b58:	3c028ff1 	lui	v0,0x8ff1
8ff01b5c:	8c44d700 	lw	a0,-10496(v0)
8ff01b60:	00a03021 	move	a2,a1
8ff01b64:	0ffc068f 	jal	8ff01a3c <send_data_to_process>
8ff01b68:	00602821 	move	a1,v1
8ff01b6c:	38440032 	xori	a0,v0,0x32
8ff01b70:	24030002 	li	v1,2
8ff01b74:	24020001 	li	v0,1
8ff01b78:	8fbf0010 	lw	ra,16(sp)
8ff01b7c:	0064100b 	movn	v0,v1,a0
8ff01b80:	03e00008 	jr	ra
8ff01b84:	27bd0018 	addiu	sp,sp,24

8ff01b88 <process_dma_data>:
8ff01b88:	27bdffe0 	addiu	sp,sp,-32
8ff01b8c:	afb10014 	sw	s1,20(sp)
8ff01b90:	afbf0018 	sw	ra,24(sp)
8ff01b94:	afb00010 	sw	s0,16(sp)
8ff01b98:	3c028ff0 	lui	v0,0x8ff0
8ff01b9c:	8c447170 	lw	a0,29040(v0)
8ff01ba0:	0ffc0601 	jal	8ff01804 <pdma_trans_addr>
8ff01ba4:	24050002 	li	a1,2
8ff01ba8:	3c038ff1 	lui	v1,0x8ff1
8ff01bac:	2471d724 	addiu	s1,v1,-10460
8ff01bb0:	8c65d724 	lw	a1,-10460(v1)
8ff01bb4:	3c03a000 	lui	v1,0xa000
8ff01bb8:	00431025 	or	v0,v0,v1
8ff01bbc:	8e24000c 	lw	a0,12(s1)
8ff01bc0:	8e230008 	lw	v1,8(s1)
8ff01bc4:	00451023 	subu	v0,v0,a1
8ff01bc8:	00431823 	subu	v1,v0,v1
8ff01bcc:	2484ffff 	addiu	a0,a0,-1
8ff01bd0:	00641824 	and	v1,v1,a0
8ff01bd4:	286300dd 	slti	v1,v1,221
8ff01bd8:	14600028 	bnez	v1,8ff01c7c <process_dma_data+0xf4>
8ff01bdc:	ae220004 	sw	v0,4(s1)
8ff01be0:	3c028ff1 	lui	v0,0x8ff1
8ff01be4:	8c46d730 	lw	a2,-10448(v0)
8ff01be8:	8e270008 	lw	a3,8(s1)
8ff01bec:	8e250004 	lw	a1,4(s1)
8ff01bf0:	00c72023 	subu	a0,a2,a3
8ff01bf4:	00a41021 	addu	v0,a1,a0
8ff01bf8:	24c6ffff 	addiu	a2,a2,-1
8ff01bfc:	00461024 	and	v0,v0,a2
8ff01c00:	0044182a 	slt	v1,v0,a0
8ff01c04:	00a72823 	subu	a1,a1,a3
8ff01c08:	0083100a 	movz	v0,a0,v1
8ff01c0c:	00a68024 	and	s0,a1,a2
8ff01c10:	00401821 	move	v1,v0
8ff01c14:	0050102a 	slt	v0,v0,s0
8ff01c18:	10400003 	beqz	v0,8ff01c28 <process_dma_data+0xa0>
8ff01c1c:	00000000 	nop
8ff01c20:	0bfc070c 	j	8ff01c30 <process_dma_data+0xa8>
8ff01c24:	00608021 	move	s0,v1
8ff01c28:	12000015 	beqz	s0,8ff01c80 <process_dma_data+0xf8>
8ff01c2c:	24020002 	li	v0,2
8ff01c30:	8e250000 	lw	a1,0(s1)
8ff01c34:	3c028ff1 	lui	v0,0x8ff1
8ff01c38:	8c44d700 	lw	a0,-10496(v0)
8ff01c3c:	02003021 	move	a2,s0
8ff01c40:	0ffc068f 	jal	8ff01a3c <send_data_to_process>
8ff01c44:	00e52821 	addu	a1,a3,a1
8ff01c48:	24030032 	li	v1,50
8ff01c4c:	10430009 	beq	v0,v1,8ff01c74 <process_dma_data+0xec>
8ff01c50:	3c038ff1 	lui	v1,0x8ff1
8ff01c54:	8e220008 	lw	v0,8(s1)
8ff01c58:	8c63d730 	lw	v1,-10448(v1)
8ff01c5c:	00501021 	addu	v0,v0,s0
8ff01c60:	0043001b 	divu	zero,v0,v1
8ff01c64:	006001f4 	teq	v1,zero,0x7
8ff01c68:	00001010 	mfhi	v0
8ff01c6c:	0bfc06f8 	j	8ff01be0 <process_dma_data+0x58>
8ff01c70:	ae220008 	sw	v0,8(s1)
8ff01c74:	0bfc0720 	j	8ff01c80 <process_dma_data+0xf8>
8ff01c78:	24020001 	li	v0,1
8ff01c7c:	24020002 	li	v0,2
8ff01c80:	8fbf0018 	lw	ra,24(sp)
8ff01c84:	8fb10014 	lw	s1,20(sp)
8ff01c88:	8fb00010 	lw	s0,16(sp)
8ff01c8c:	03e00008 	jr	ra
8ff01c90:	27bd0020 	addiu	sp,sp,32

8ff01c94 <process_dma_data_2>:
8ff01c94:	27bdffd8 	addiu	sp,sp,-40
8ff01c98:	afb20020 	sw	s2,32(sp)
8ff01c9c:	afb1001c 	sw	s1,28(sp)
8ff01ca0:	afbf0024 	sw	ra,36(sp)
8ff01ca4:	afb00018 	sw	s0,24(sp)
8ff01ca8:	3c028ff0 	lui	v0,0x8ff0
8ff01cac:	8c447170 	lw	a0,29040(v0)
8ff01cb0:	0ffc0601 	jal	8ff01804 <pdma_trans_addr>
8ff01cb4:	24050002 	li	a1,2
8ff01cb8:	3c038ff1 	lui	v1,0x8ff1
8ff01cbc:	2471d724 	addiu	s1,v1,-10460
8ff01cc0:	8c65d724 	lw	a1,-10460(v1)
8ff01cc4:	3c03a000 	lui	v1,0xa000
8ff01cc8:	00431025 	or	v0,v0,v1
8ff01ccc:	8e240008 	lw	a0,8(s1)
8ff01cd0:	8e23000c 	lw	v1,12(s1)
8ff01cd4:	00451023 	subu	v0,v0,a1
8ff01cd8:	00442023 	subu	a0,v0,a0
8ff01cdc:	2463ffff 	addiu	v1,v1,-1
8ff01ce0:	00839024 	and	s2,a0,v1
8ff01ce4:	ae220004 	sw	v0,4(s1)
8ff01ce8:	3c028ff1 	lui	v0,0x8ff1
8ff01cec:	8c46d730 	lw	a2,-10448(v0)
8ff01cf0:	8e270008 	lw	a3,8(s1)
8ff01cf4:	8e250004 	lw	a1,4(s1)
8ff01cf8:	00c72023 	subu	a0,a2,a3
8ff01cfc:	00a41021 	addu	v0,a1,a0
8ff01d00:	24c6ffff 	addiu	a2,a2,-1
8ff01d04:	00461024 	and	v0,v0,a2
8ff01d08:	0044182a 	slt	v1,v0,a0
8ff01d0c:	00a72823 	subu	a1,a1,a3
8ff01d10:	0083100a 	movz	v0,a0,v1
8ff01d14:	00a68024 	and	s0,a1,a2
8ff01d18:	00401821 	move	v1,v0
8ff01d1c:	0050102a 	slt	v0,v0,s0
8ff01d20:	10400003 	beqz	v0,8ff01d30 <process_dma_data_2+0x9c>
8ff01d24:	00000000 	nop
8ff01d28:	0bfc074e 	j	8ff01d38 <process_dma_data_2+0xa4>
8ff01d2c:	00608021 	move	s0,v1
8ff01d30:	12000014 	beqz	s0,8ff01d84 <process_dma_data_2+0xf0>
8ff01d34:	3c020001 	lui	v0,0x1
8ff01d38:	8e250000 	lw	a1,0(s1)
8ff01d3c:	3c028ff1 	lui	v0,0x8ff1
8ff01d40:	8c44d700 	lw	a0,-10496(v0)
8ff01d44:	02003021 	move	a2,s0
8ff01d48:	0ffc068f 	jal	8ff01a3c <send_data_to_process>
8ff01d4c:	00e52821 	addu	a1,a3,a1
8ff01d50:	afa20010 	sw	v0,16(sp)
8ff01d54:	8fa30010 	lw	v1,16(sp)
8ff01d58:	24020032 	li	v0,50
8ff01d5c:	10620012 	beq	v1,v0,8ff01da8 <process_dma_data_2+0x114>
8ff01d60:	3c038ff1 	lui	v1,0x8ff1
8ff01d64:	8e220008 	lw	v0,8(s1)
8ff01d68:	8c63d730 	lw	v1,-10448(v1)
8ff01d6c:	00501021 	addu	v0,v0,s0
8ff01d70:	0043001b 	divu	zero,v0,v1
8ff01d74:	006001f4 	teq	v1,zero,0x7
8ff01d78:	00001010 	mfhi	v0
8ff01d7c:	0bfc073a 	j	8ff01ce8 <process_dma_data_2+0x54>
8ff01d80:	ae220008 	sw	v0,8(s1)
8ff01d84:	3c058ff1 	lui	a1,0x8ff1
8ff01d88:	8ca386a0 	lw	v1,-31072(a1)
8ff01d8c:	02431821 	addu	v1,s2,v1
8ff01d90:	3442ffff 	ori	v0,v0,0xffff
8ff01d94:	0043102a 	slt	v0,v0,v1
8ff01d98:	14400005 	bnez	v0,8ff01db0 <process_dma_data_2+0x11c>
8ff01d9c:	aca386a0 	sw	v1,-31072(a1)
8ff01da0:	0bfc076e 	j	8ff01db8 <process_dma_data_2+0x124>
8ff01da4:	24020003 	li	v0,3
8ff01da8:	0bfc076e 	j	8ff01db8 <process_dma_data_2+0x124>
8ff01dac:	24020001 	li	v0,1
8ff01db0:	aca086a0 	sw	zero,-31072(a1)
8ff01db4:	24020002 	li	v0,2
8ff01db8:	8fbf0024 	lw	ra,36(sp)
8ff01dbc:	8fb20020 	lw	s2,32(sp)
8ff01dc0:	8fb1001c 	lw	s1,28(sp)
8ff01dc4:	8fb00018 	lw	s0,24(sp)
8ff01dc8:	03e00008 	jr	ra
8ff01dcc:	27bd0028 	addiu	sp,sp,40

8ff01dd0 <process_nbytes>:
8ff01dd0:	27bdffe0 	addiu	sp,sp,-32
8ff01dd4:	3c028ff1 	lui	v0,0x8ff1
8ff01dd8:	afb20018 	sw	s2,24(sp)
8ff01ddc:	afb10014 	sw	s1,20(sp)
8ff01de0:	afbf001c 	sw	ra,28(sp)
8ff01de4:	afb00010 	sw	s0,16(sp)
8ff01de8:	00809021 	move	s2,a0
8ff01dec:	2451d724 	addiu	s1,v0,-10460
8ff01df0:	3c028ff1 	lui	v0,0x8ff1
8ff01df4:	8c46d730 	lw	a2,-10448(v0)
8ff01df8:	8e270008 	lw	a3,8(s1)
8ff01dfc:	8e250004 	lw	a1,4(s1)
8ff01e00:	00c72023 	subu	a0,a2,a3
8ff01e04:	00a41021 	addu	v0,a1,a0
8ff01e08:	24c6ffff 	addiu	a2,a2,-1
8ff01e0c:	00461024 	and	v0,v0,a2
8ff01e10:	0044182a 	slt	v1,v0,a0
8ff01e14:	00a72823 	subu	a1,a1,a3
8ff01e18:	0083100a 	movz	v0,a0,v1
8ff01e1c:	00a68024 	and	s0,a1,a2
8ff01e20:	00401821 	move	v1,v0
8ff01e24:	0050102a 	slt	v0,v0,s0
8ff01e28:	10400003 	beqz	v0,8ff01e38 <process_nbytes+0x68>
8ff01e2c:	00000000 	nop
8ff01e30:	0bfc0790 	j	8ff01e40 <process_nbytes+0x70>
8ff01e34:	00608021 	move	s0,v1
8ff01e38:	12000012 	beqz	s0,8ff01e84 <process_nbytes+0xb4>
8ff01e3c:	3c020001 	lui	v0,0x1
8ff01e40:	8e250000 	lw	a1,0(s1)
8ff01e44:	3c028ff1 	lui	v0,0x8ff1
8ff01e48:	8c44d700 	lw	a0,-10496(v0)
8ff01e4c:	02003021 	move	a2,s0
8ff01e50:	0ffc068f 	jal	8ff01a3c <send_data_to_process>
8ff01e54:	00e52821 	addu	a1,a3,a1
8ff01e58:	24030032 	li	v1,50
8ff01e5c:	10430012 	beq	v0,v1,8ff01ea8 <process_nbytes+0xd8>
8ff01e60:	3c038ff1 	lui	v1,0x8ff1
8ff01e64:	8e220008 	lw	v0,8(s1)
8ff01e68:	8c63d730 	lw	v1,-10448(v1)
8ff01e6c:	00501021 	addu	v0,v0,s0
8ff01e70:	0043001b 	divu	zero,v0,v1
8ff01e74:	006001f4 	teq	v1,zero,0x7
8ff01e78:	00001010 	mfhi	v0
8ff01e7c:	0bfc077c 	j	8ff01df0 <process_nbytes+0x20>
8ff01e80:	ae220008 	sw	v0,8(s1)
8ff01e84:	3c058ff1 	lui	a1,0x8ff1
8ff01e88:	8ca386a0 	lw	v1,-31072(a1)
8ff01e8c:	02431821 	addu	v1,s2,v1
8ff01e90:	3442ffff 	ori	v0,v0,0xffff
8ff01e94:	0043102a 	slt	v0,v0,v1
8ff01e98:	14400005 	bnez	v0,8ff01eb0 <process_nbytes+0xe0>
8ff01e9c:	aca386a0 	sw	v1,-31072(a1)
8ff01ea0:	0bfc07ae 	j	8ff01eb8 <process_nbytes+0xe8>
8ff01ea4:	24020003 	li	v0,3
8ff01ea8:	0bfc07ae 	j	8ff01eb8 <process_nbytes+0xe8>
8ff01eac:	24020001 	li	v0,1
8ff01eb0:	aca086a0 	sw	zero,-31072(a1)
8ff01eb4:	24020002 	li	v0,2
8ff01eb8:	8fbf001c 	lw	ra,28(sp)
8ff01ebc:	8fb20018 	lw	s2,24(sp)
8ff01ec0:	8fb10014 	lw	s1,20(sp)
8ff01ec4:	8fb00010 	lw	s0,16(sp)
8ff01ec8:	03e00008 	jr	ra
8ff01ecc:	27bd0020 	addiu	sp,sp,32

8ff01ed0 <process_dma_data_3>:
8ff01ed0:	27bdffe8 	addiu	sp,sp,-24
8ff01ed4:	afbf0014 	sw	ra,20(sp)
8ff01ed8:	0ffc062d 	jal	8ff018b4 <get_valid_bytes>
8ff01edc:	afb00010 	sw	s0,16(sp)
8ff01ee0:	00402021 	move	a0,v0
8ff01ee4:	28420400 	slti	v0,v0,1024
8ff01ee8:	10400003 	beqz	v0,8ff01ef8 <process_dma_data_3+0x28>
8ff01eec:	3c02b342 	lui	v0,0xb342
8ff01ef0:	0bfc07e2 	j	8ff01f88 <process_dma_data_3+0xb8>
8ff01ef4:	24040003 	li	a0,3
8ff01ef8:	34423fd8 	ori	v0,v0,0x3fd8
8ff01efc:	8c430000 	lw	v1,0(v0)
8ff01f00:	3c020070 	lui	v0,0x70
8ff01f04:	00621825 	or	v1,v1,v0
8ff01f08:	3c10b000 	lui	s0,0xb000
8ff01f0c:	3c02b000 	lui	v0,0xb000
8ff01f10:	ac430000 	sw	v1,0(v0)
8ff01f14:	360300d4 	ori	v1,s0,0xd4
8ff01f18:	8c620000 	lw	v0,0(v1)
8ff01f1c:	30420007 	andi	v0,v0,0x7
8ff01f20:	1440fffd 	bnez	v0,8ff01f18 <process_dma_data_3+0x48>
8ff01f24:	00000000 	nop
8ff01f28:	0ffc0774 	jal	8ff01dd0 <process_nbytes>
8ff01f2c:	00000000 	nop
8ff01f30:	00402021 	move	a0,v0
8ff01f34:	8e030000 	lw	v1,0(s0)
8ff01f38:	3c02000f 	lui	v0,0xf
8ff01f3c:	3442ffff 	ori	v0,v0,0xffff
8ff01f40:	00621824 	and	v1,v1,v0
8ff01f44:	3c029500 	lui	v0,0x9500
8ff01f48:	00621825 	or	v1,v1,v0
8ff01f4c:	ae030000 	sw	v1,0(s0)
8ff01f50:	8e020000 	lw	v0,0(s0)
8ff01f54:	3c03fff0 	lui	v1,0xfff0
8ff01f58:	00431024 	and	v0,v0,v1
8ff01f5c:	ae020000 	sw	v0,0(s0)
8ff01f60:	8e020000 	lw	v0,0(s0)
8ff01f64:	3c030070 	lui	v1,0x70
8ff01f68:	00431025 	or	v0,v0,v1
8ff01f6c:	ae020000 	sw	v0,0(s0)
8ff01f70:	3c02b000 	lui	v0,0xb000
8ff01f74:	344300d4 	ori	v1,v0,0xd4
8ff01f78:	8c620000 	lw	v0,0(v1)
8ff01f7c:	30420007 	andi	v0,v0,0x7
8ff01f80:	1440fffd 	bnez	v0,8ff01f78 <process_dma_data_3+0xa8>
8ff01f84:	00000000 	nop
8ff01f88:	8fbf0014 	lw	ra,20(sp)
8ff01f8c:	8fb00010 	lw	s0,16(sp)
8ff01f90:	00801021 	move	v0,a0
8ff01f94:	03e00008 	jr	ra
8ff01f98:	27bd0018 	addiu	sp,sp,24
8ff01f9c:	00000000 	nop

8ff01fa0 <tcu_timer_del>:
8ff01fa0:	3c028ff0 	lui	v0,0x8ff0
8ff01fa4:	8c4471a0 	lw	a0,29088(v0)
8ff01fa8:	24030001 	li	v1,1
8ff01fac:	3c02b000 	lui	v0,0xb000
8ff01fb0:	00831804 	sllv	v1,v1,a0
8ff01fb4:	34452028 	ori	a1,v0,0x2028
8ff01fb8:	34442034 	ori	a0,v0,0x2034
8ff01fbc:	34422018 	ori	v0,v0,0x2018
8ff01fc0:	ac830000 	sw	v1,0(a0)
8ff01fc4:	ac430000 	sw	v1,0(v0)
8ff01fc8:	aca30000 	sw	v1,0(a1)
8ff01fcc:	03e00008 	jr	ra
8ff01fd0:	00000000 	nop

8ff01fd4 <ms_to_count>:
8ff01fd4:	00041080 	sll	v0,a0,0x2
8ff01fd8:	000419c0 	sll	v1,a0,0x7
8ff01fdc:	00621823 	subu	v1,v1,v0
8ff01fe0:	00641821 	addu	v1,v1,a0
8ff01fe4:	000318c0 	sll	v1,v1,0x3
8ff01fe8:	3c020c73 	lui	v0,0xc73
8ff01fec:	246307a0 	addiu	v1,v1,1952
8ff01ff0:	3442e005 	ori	v0,v0,0xe005
8ff01ff4:	00620019 	multu	v1,v0
8ff01ff8:	00001010 	mfhi	v0
8ff01ffc:	00621823 	subu	v1,v1,v0
8ff02000:	00031842 	srl	v1,v1,0x1
8ff02004:	00431021 	addu	v0,v0,v1
8ff02008:	03e00008 	jr	ra
8ff0200c:	00021282 	srl	v0,v0,0xa

8ff02010 <tcu_timer_mod>:
8ff02010:	3c028ff0 	lui	v0,0x8ff0
8ff02014:	8c4b71a0 	lw	t3,29088(v0)
8ff02018:	3c03b000 	lui	v1,0xb000
8ff0201c:	000b4100 	sll	t0,t3,0x4
8ff02020:	34672048 	ori	a3,v1,0x2048
8ff02024:	01073821 	addu	a3,t0,a3
8ff02028:	000437c2 	srl	a2,a0,0x1f
8ff0202c:	8ce20000 	lw	v0,0(a3)
8ff02030:	346a2040 	ori	t2,v1,0x2040
8ff02034:	00c43021 	addu	a2,a2,a0
8ff02038:	34692044 	ori	t1,v1,0x2044
8ff0203c:	24050001 	li	a1,1
8ff02040:	01652804 	sllv	a1,a1,t3
8ff02044:	01094821 	addu	t1,t0,t1
8ff02048:	346c2014 	ori	t4,v1,0x2014
8ff0204c:	010a4021 	addu	t0,t0,t2
8ff02050:	346b2018 	ori	t3,v1,0x2018
8ff02054:	346a203c 	ori	t2,v1,0x203c
8ff02058:	00063043 	sra	a2,a2,0x1
8ff0205c:	34632038 	ori	v1,v1,0x2038
8ff02060:	ace00000 	sw	zero,0(a3)
8ff02064:	ad450000 	sw	a1,0(t2)
8ff02068:	ad650000 	sw	a1,0(t3)
8ff0206c:	ad040000 	sw	a0,0(t0)
8ff02070:	ad260000 	sw	a2,0(t1)
8ff02074:	ac650000 	sw	a1,0(v1)
8ff02078:	ad850000 	sw	a1,0(t4)
8ff0207c:	03e00008 	jr	ra
8ff02080:	00000000 	nop

8ff02084 <tcu_timer_handler>:
8ff02084:	27bdffe8 	addiu	sp,sp,-24
8ff02088:	3c04b000 	lui	a0,0xb000
8ff0208c:	afbf0010 	sw	ra,16(sp)
8ff02090:	3c028ff0 	lui	v0,0x8ff0
8ff02094:	8c4571a0 	lw	a1,29088(v0)
8ff02098:	34822020 	ori	v0,a0,0x2020
8ff0209c:	8c430000 	lw	v1,0(v0)
8ff020a0:	24020001 	li	v0,1
8ff020a4:	00a21004 	sllv	v0,v0,a1
8ff020a8:	00621824 	and	v1,v1,v0
8ff020ac:	34862028 	ori	a2,a0,0x2028
8ff020b0:	10600008 	beqz	v1,8ff020d4 <tcu_timer_handler+0x50>
8ff020b4:	2404001e 	li	a0,30
8ff020b8:	acc20000 	sw	v0,0(a2)
8ff020bc:	0ffc07f5 	jal	8ff01fd4 <ms_to_count>
8ff020c0:	00000000 	nop
8ff020c4:	00402021 	move	a0,v0
8ff020c8:	8fbf0010 	lw	ra,16(sp)
8ff020cc:	0bfc0804 	j	8ff02010 <tcu_timer_mod>
8ff020d0:	27bd0018 	addiu	sp,sp,24
8ff020d4:	8fbf0010 	lw	ra,16(sp)
8ff020d8:	03e00008 	jr	ra
8ff020dc:	27bd0018 	addiu	sp,sp,24

8ff020e0 <tcu_timer_request>:
8ff020e0:	3c05b000 	lui	a1,0xb000
8ff020e4:	34a60020 	ori	a2,a1,0x20
8ff020e8:	8cc30000 	lw	v1,0(a2)
8ff020ec:	3c02bfff 	lui	v0,0xbfff
8ff020f0:	3442ffff 	ori	v0,v0,0xffff
8ff020f4:	00621824 	and	v1,v1,v0
8ff020f8:	00043900 	sll	a3,a0,0x4
8ff020fc:	34a8204c 	ori	t0,a1,0x204c
8ff02100:	3c028ff0 	lui	v0,0x8ff0
8ff02104:	acc30000 	sw	v1,0(a2)
8ff02108:	00e84021 	addu	t0,a3,t0
8ff0210c:	ac4471a0 	sw	a0,29088(v0)
8ff02110:	8d0c0000 	lw	t4,0(t0)
8ff02114:	24060001 	li	a2,1
8ff02118:	34a22044 	ori	v0,a1,0x2044
8ff0211c:	24830010 	addiu	v1,a0,16
8ff02120:	00e23821 	addu	a3,a3,v0
8ff02124:	00862004 	sllv	a0,a2,a0
8ff02128:	3c028ff1 	lui	v0,0x8ff1
8ff0212c:	00661804 	sllv	v1,a2,v1
8ff02130:	ac4cd744 	sw	t4,-10428(v0)
8ff02134:	00831825 	or	v1,a0,v1
8ff02138:	34a9203c 	ori	t1,a1,0x203c
8ff0213c:	34aa2018 	ori	t2,a1,0x2018
8ff02140:	34ab2034 	ori	t3,a1,0x2034
8ff02144:	2402001a 	li	v0,26
8ff02148:	34a52028 	ori	a1,a1,0x2028
8ff0214c:	ad240000 	sw	a0,0(t1)
8ff02150:	ad440000 	sw	a0,0(t2)
8ff02154:	ad630000 	sw	v1,0(t3)
8ff02158:	aca30000 	sw	v1,0(a1)
8ff0215c:	ace60000 	sw	a2,0(a3)
8ff02160:	ad020000 	sw	v0,0(t0)
8ff02164:	03e00008 	jr	ra
8ff02168:	00000000 	nop

8ff0216c <tcu_timer_release>:
8ff0216c:	3c028ff0 	lui	v0,0x8ff0
8ff02170:	8c4371a0 	lw	v1,29088(v0)
8ff02174:	3c04b000 	lui	a0,0xb000
8ff02178:	3c028ff1 	lui	v0,0x8ff1
8ff0217c:	8c48d744 	lw	t0,-10428(v0)
8ff02180:	00033900 	sll	a3,v1,0x4
8ff02184:	3482204c 	ori	v0,a0,0x204c
8ff02188:	00e23821 	addu	a3,a3,v0
8ff0218c:	24020001 	li	v0,1
8ff02190:	00621004 	sllv	v0,v0,v1
8ff02194:	34852018 	ori	a1,a0,0x2018
8ff02198:	34832034 	ori	v1,a0,0x2034
8ff0219c:	34862028 	ori	a2,a0,0x2028
8ff021a0:	ac620000 	sw	v0,0(v1)
8ff021a4:	34840020 	ori	a0,a0,0x20
8ff021a8:	aca20000 	sw	v0,0(a1)
8ff021ac:	acc20000 	sw	v0,0(a2)
8ff021b0:	ace80000 	sw	t0,0(a3)
8ff021b4:	8c820000 	lw	v0,0(a0)
8ff021b8:	3c034000 	lui	v1,0x4000
8ff021bc:	00431025 	or	v0,v0,v1
8ff021c0:	ac820000 	sw	v0,0(a0)
8ff021c4:	03e00008 	jr	ra
8ff021c8:	00000000 	nop
8ff021cc:	00000000 	nop

8ff021d0 <IvwSetParam>:
8ff021d0:	27bdffd0 	addiu	sp,sp,-48
8ff021d4:	24840003 	addiu	a0,a0,3
8ff021d8:	2402fffc 	li	v0,-4
8ff021dc:	afb00024 	sw	s0,36(sp)
8ff021e0:	00828024 	and	s0,a0,v0
8ff021e4:	afbf002c 	sw	ra,44(sp)
8ff021e8:	12000019 	beqz	s0,8ff02250 <IvwSetParam+0x80>
8ff021ec:	afb10028 	sw	s1,40(sp)
8ff021f0:	3c022013 	lui	v0,0x2013
8ff021f4:	8e030000 	lw	v1,0(s0)
8ff021f8:	24420805 	addiu	v0,v0,2053
8ff021fc:	10620007 	beq	v1,v0,8ff0221c <IvwSetParam+0x4c>
8ff02200:	26110004 	addiu	s1,s0,4
8ff02204:	24020001 	li	v0,1
8ff02208:	8fbf002c 	lw	ra,44(sp)
8ff0220c:	8fb10028 	lw	s1,40(sp)
8ff02210:	8fb00024 	lw	s0,36(sp)
8ff02214:	03e00008 	jr	ra
8ff02218:	27bd0030 	addiu	sp,sp,48
8ff0221c:	02202021 	move	a0,s1
8ff02220:	afa50010 	sw	a1,16(sp)
8ff02224:	afa60014 	sw	a2,20(sp)
8ff02228:	0ffc0b75 	jal	8ff02dd4 <Ivw20CE383A817684C9CA7B801E08BCC5E1E>
8ff0222c:	afa70018 	sw	a3,24(sp)
8ff02230:	8fa50010 	lw	a1,16(sp)
8ff02234:	8fa60014 	lw	a2,20(sp)
8ff02238:	1440fff3 	bnez	v0,8ff02208 <IvwSetParam+0x38>
8ff0223c:	8fa70018 	lw	a3,24(sp)
8ff02240:	24a5f825 	addiu	a1,a1,-2011
8ff02244:	2ca20009 	sltiu	v0,a1,9
8ff02248:	14400007 	bnez	v0,8ff02268 <IvwSetParam+0x98>
8ff0224c:	3c028ff0 	lui	v0,0x8ff0
8ff02250:	8fbf002c 	lw	ra,44(sp)
8ff02254:	8fb10028 	lw	s1,40(sp)
8ff02258:	8fb00024 	lw	s0,36(sp)
8ff0225c:	24020002 	li	v0,2
8ff02260:	03e00008 	jr	ra
8ff02264:	27bd0030 	addiu	sp,sp,48
8ff02268:	244271b0 	addiu	v0,v0,29104
8ff0226c:	00052880 	sll	a1,a1,0x2
8ff02270:	00452821 	addu	a1,v0,a1
8ff02274:	8ca20000 	lw	v0,0(a1)
8ff02278:	00400008 	jr	v0
8ff0227c:	00000000 	nop
8ff02280:	04c0fff3 	bltz	a2,8ff02250 <IvwSetParam+0x80>
8ff02284:	3c026666 	lui	v0,0x6666
8ff02288:	24426667 	addiu	v0,v0,26215
8ff0228c:	00c20018 	mult	a2,v0
8ff02290:	000637c3 	sra	a2,a2,0x1f
8ff02294:	00001010 	mfhi	v0
8ff02298:	00021083 	sra	v0,v0,0x2
8ff0229c:	00461023 	subu	v0,v0,a2
8ff022a0:	ae021030 	sw	v0,4144(s0)
8ff022a4:	0ffc0b7f 	jal	8ff02dfc <Ivw16E3158F17AD496CB71B7DB0EE820>
8ff022a8:	02202021 	move	a0,s1
8ff022ac:	1000ffd7 	b	8ff0220c <IvwSetParam+0x3c>
8ff022b0:	8fbf002c 	lw	ra,44(sp)
8ff022b4:	04c0ffe6 	bltz	a2,8ff02250 <IvwSetParam+0x80>
8ff022b8:	3c026666 	lui	v0,0x6666
8ff022bc:	24426667 	addiu	v0,v0,26215
8ff022c0:	00c20018 	mult	a2,v0
8ff022c4:	000637c3 	sra	a2,a2,0x1f
8ff022c8:	00001010 	mfhi	v0
8ff022cc:	00021083 	sra	v0,v0,0x2
8ff022d0:	00461023 	subu	v0,v0,a2
8ff022d4:	1000fff3 	b	8ff022a4 <IvwSetParam+0xd4>
8ff022d8:	ae02102c 	sw	v0,4140(s0)
8ff022dc:	3c020001 	lui	v0,0x1
8ff022e0:	00c2102b 	sltu	v0,a2,v0
8ff022e4:	1040ffdb 	beqz	v0,8ff02254 <IvwSetParam+0x84>
8ff022e8:	8fbf002c 	lw	ra,44(sp)
8ff022ec:	8e031034 	lw	v1,4148(s0)
8ff022f0:	1060ffec 	beqz	v1,8ff022a4 <IvwSetParam+0xd4>
8ff022f4:	3c046666 	lui	a0,0x6666
8ff022f8:	24846667 	addiu	a0,a0,26215
8ff022fc:	00c40018 	mult	a2,a0
8ff02300:	000637c3 	sra	a2,a2,0x1f
8ff02304:	00002010 	mfhi	a0
8ff02308:	2610112c 	addiu	s0,s0,4396
8ff0230c:	00042083 	sra	a0,a0,0x2
8ff02310:	00862023 	subu	a0,a0,a2
8ff02314:	00001021 	move	v0,zero
8ff02318:	24420001 	addiu	v0,v0,1
8ff0231c:	a6040000 	sh	a0,0(s0)
8ff02320:	1443fffd 	bne	v0,v1,8ff02318 <IvwSetParam+0x148>
8ff02324:	26100104 	addiu	s0,s0,260
8ff02328:	1000ffde 	b	8ff022a4 <IvwSetParam+0xd4>
8ff0232c:	00000000 	nop
8ff02330:	3c020001 	lui	v0,0x1
8ff02334:	00c2102b 	sltu	v0,a2,v0
8ff02338:	1040ffc6 	beqz	v0,8ff02254 <IvwSetParam+0x84>
8ff0233c:	8fbf002c 	lw	ra,44(sp)
8ff02340:	8e031034 	lw	v1,4148(s0)
8ff02344:	1060ffd7 	beqz	v1,8ff022a4 <IvwSetParam+0xd4>
8ff02348:	2610112a 	addiu	s0,s0,4394
8ff0234c:	00001021 	move	v0,zero
8ff02350:	24420001 	addiu	v0,v0,1
8ff02354:	a6060000 	sh	a2,0(s0)
8ff02358:	1443fffd 	bne	v0,v1,8ff02350 <IvwSetParam+0x180>
8ff0235c:	26100104 	addiu	s0,s0,260
8ff02360:	1000ffd0 	b	8ff022a4 <IvwSetParam+0xd4>
8ff02364:	00000000 	nop
8ff02368:	2cc201f5 	sltiu	v0,a2,501
8ff0236c:	1040ffb9 	beqz	v0,8ff02254 <IvwSetParam+0x84>
8ff02370:	8fbf002c 	lw	ra,44(sp)
8ff02374:	8e031034 	lw	v1,4148(s0)
8ff02378:	1060ffca 	beqz	v1,8ff022a4 <IvwSetParam+0xd4>
8ff0237c:	3c046666 	lui	a0,0x6666
8ff02380:	24846667 	addiu	a0,a0,26215
8ff02384:	00c40018 	mult	a2,a0
8ff02388:	000637c3 	sra	a2,a2,0x1f
8ff0238c:	00002010 	mfhi	a0
8ff02390:	26101128 	addiu	s0,s0,4392
8ff02394:	00042083 	sra	a0,a0,0x2
8ff02398:	00862023 	subu	a0,a0,a2
8ff0239c:	00001021 	move	v0,zero
8ff023a0:	24420001 	addiu	v0,v0,1
8ff023a4:	a6040000 	sh	a0,0(s0)
8ff023a8:	1443fffd 	bne	v0,v1,8ff023a0 <IvwSetParam+0x1d0>
8ff023ac:	26100104 	addiu	s0,s0,260
8ff023b0:	1000ffbc 	b	8ff022a4 <IvwSetParam+0xd4>
8ff023b4:	00000000 	nop
8ff023b8:	2cc201f5 	sltiu	v0,a2,501
8ff023bc:	1040ffa5 	beqz	v0,8ff02254 <IvwSetParam+0x84>
8ff023c0:	8fbf002c 	lw	ra,44(sp)
8ff023c4:	8e031034 	lw	v1,4148(s0)
8ff023c8:	1060ffb6 	beqz	v1,8ff022a4 <IvwSetParam+0xd4>
8ff023cc:	3c046666 	lui	a0,0x6666
8ff023d0:	24846667 	addiu	a0,a0,26215
8ff023d4:	00c40018 	mult	a2,a0
8ff023d8:	000637c3 	sra	a2,a2,0x1f
8ff023dc:	00002010 	mfhi	a0
8ff023e0:	26101126 	addiu	s0,s0,4390
8ff023e4:	00042083 	sra	a0,a0,0x2
8ff023e8:	00862023 	subu	a0,a0,a2
8ff023ec:	00001021 	move	v0,zero
8ff023f0:	24420001 	addiu	v0,v0,1
8ff023f4:	a6040000 	sh	a0,0(s0)
8ff023f8:	1443fffd 	bne	v0,v1,8ff023f0 <IvwSetParam+0x220>
8ff023fc:	26100104 	addiu	s0,s0,260
8ff02400:	1000ffa8 	b	8ff022a4 <IvwSetParam+0xd4>
8ff02404:	00000000 	nop
8ff02408:	3c020001 	lui	v0,0x1
8ff0240c:	00c2102b 	sltu	v0,a2,v0
8ff02410:	1040ff90 	beqz	v0,8ff02254 <IvwSetParam+0x84>
8ff02414:	8fbf002c 	lw	ra,44(sp)
8ff02418:	8e031034 	lw	v1,4148(s0)
8ff0241c:	1060ffa1 	beqz	v1,8ff022a4 <IvwSetParam+0xd4>
8ff02420:	26101124 	addiu	s0,s0,4388
8ff02424:	00001021 	move	v0,zero
8ff02428:	24420001 	addiu	v0,v0,1
8ff0242c:	a6060000 	sh	a2,0(s0)
8ff02430:	1443fffd 	bne	v0,v1,8ff02428 <IvwSetParam+0x258>
8ff02434:	26100104 	addiu	s0,s0,260
8ff02438:	1000ff9a 	b	8ff022a4 <IvwSetParam+0xd4>
8ff0243c:	00000000 	nop
8ff02440:	8e021034 	lw	v0,4148(s0)
8ff02444:	8fa30040 	lw	v1,64(sp)
8ff02448:	0062102b 	sltu	v0,v1,v0
8ff0244c:	1040ff6d 	beqz	v0,8ff02204 <IvwSetParam+0x34>
8ff02450:	00031200 	sll	v0,v1,0x8
8ff02454:	00031880 	sll	v1,v1,0x2
8ff02458:	00621021 	addu	v0,v1,v0
8ff0245c:	02021021 	addu	v0,s0,v0
8ff02460:	9442105c 	lhu	v0,4188(v0)
8ff02464:	00e2102b 	sltu	v0,a3,v0
8ff02468:	1040ff66 	beqz	v0,8ff02204 <IvwSetParam+0x34>
8ff0246c:	28c27fff 	slti	v0,a2,32767
8ff02470:	10400005 	beqz	v0,8ff02488 <IvwSetParam+0x2b8>
8ff02474:	24027fff 	li	v0,32767
8ff02478:	28c28001 	slti	v0,a2,-32767
8ff0247c:	10400004 	beqz	v0,8ff02490 <IvwSetParam+0x2c0>
8ff02480:	00c01021 	move	v0,a2
8ff02484:	24028000 	li	v0,-32768
8ff02488:	1446ff71 	bne	v0,a2,8ff02250 <IvwSetParam+0x80>
8ff0248c:	00000000 	nop
8ff02490:	2403000a 	li	v1,10
8ff02494:	8fa40040 	lw	a0,64(sp)
8ff02498:	70e33802 	mul	a3,a3,v1
8ff0249c:	24030104 	li	v1,260
8ff024a0:	70832802 	mul	a1,a0,v1
8ff024a4:	00b08021 	addu	s0,a1,s0
8ff024a8:	8e03111c 	lw	v1,4380(s0)
8ff024ac:	00671821 	addu	v1,v1,a3
8ff024b0:	a4620000 	sh	v0,0(v1)
8ff024b4:	8e03111c 	lw	v1,4380(s0)
8ff024b8:	00673821 	addu	a3,v1,a3
8ff024bc:	1000ff79 	b	8ff022a4 <IvwSetParam+0xd4>
8ff024c0:	a4e20002 	sh	v0,2(a3)

8ff024c4 <IvwRunStep>:
8ff024c4:	1080000f 	beqz	a0,8ff02504 <IvwRunStep+0x40>
8ff024c8:	00000000 	nop
8ff024cc:	10a0000d 	beqz	a1,8ff02504 <IvwRunStep+0x40>
8ff024d0:	00000000 	nop
8ff024d4:	10c0000b 	beqz	a2,8ff02504 <IvwRunStep+0x40>
8ff024d8:	2403fffc 	li	v1,-4
8ff024dc:	24840003 	addiu	a0,a0,3
8ff024e0:	00832024 	and	a0,a0,v1
8ff024e4:	00a01021 	move	v0,a1
8ff024e8:	3c032013 	lui	v1,0x2013
8ff024ec:	8c850000 	lw	a1,0(a0)
8ff024f0:	24630805 	addiu	v1,v1,2053
8ff024f4:	10a30005 	beq	a1,v1,8ff0250c <IvwRunStep+0x48>
8ff024f8:	00c03821 	move	a3,a2
8ff024fc:	03e00008 	jr	ra
8ff02500:	24020001 	li	v0,1
8ff02504:	03e00008 	jr	ra
8ff02508:	24020002 	li	v0,2
8ff0250c:	27bdffd8 	addiu	sp,sp,-40
8ff02510:	27a50018 	addiu	a1,sp,24
8ff02514:	afa00010 	sw	zero,16(sp)
8ff02518:	afa00014 	sw	zero,20(sp)
8ff0251c:	24840004 	addiu	a0,a0,4
8ff02520:	afbf0024 	sw	ra,36(sp)
8ff02524:	0ffc0ba9 	jal	8ff02ea4 <Ivw9B2872550B104C21A43D30AE8F977>
8ff02528:	00403021 	move	a2,v0
8ff0252c:	8fbf0024 	lw	ra,36(sp)
8ff02530:	03e00008 	jr	ra
8ff02534:	27bd0028 	addiu	sp,sp,40

8ff02538 <IvwRunStepEx>:
8ff02538:	1080001a 	beqz	a0,8ff025a4 <IvwRunStepEx+0x6c>
8ff0253c:	00000000 	nop
8ff02540:	10a00018 	beqz	a1,8ff025a4 <IvwRunStepEx+0x6c>
8ff02544:	00000000 	nop
8ff02548:	10c00016 	beqz	a2,8ff025a4 <IvwRunStepEx+0x6c>
8ff0254c:	00000000 	nop
8ff02550:	10e00014 	beqz	a3,8ff025a4 <IvwRunStepEx+0x6c>
8ff02554:	00000000 	nop
8ff02558:	27bdffe0 	addiu	sp,sp,-32
8ff0255c:	8fa30030 	lw	v1,48(sp)
8ff02560:	10600012 	beqz	v1,8ff025ac <IvwRunStepEx+0x74>
8ff02564:	afbf001c 	sw	ra,28(sp)
8ff02568:	00a01021 	move	v0,a1
8ff0256c:	8fa50034 	lw	a1,52(sp)
8ff02570:	10a0000e 	beqz	a1,8ff025ac <IvwRunStepEx+0x74>
8ff02574:	2403fffc 	li	v1,-4
8ff02578:	24840003 	addiu	a0,a0,3
8ff0257c:	00832024 	and	a0,a0,v1
8ff02580:	8c850000 	lw	a1,0(a0)
8ff02584:	3c032013 	lui	v1,0x2013
8ff02588:	24630805 	addiu	v1,v1,2053
8ff0258c:	10a3000b 	beq	a1,v1,8ff025bc <IvwRunStepEx+0x84>
8ff02590:	8fa50034 	lw	a1,52(sp)
8ff02594:	24020001 	li	v0,1
8ff02598:	8fbf001c 	lw	ra,28(sp)
8ff0259c:	03e00008 	jr	ra
8ff025a0:	27bd0020 	addiu	sp,sp,32
8ff025a4:	03e00008 	jr	ra
8ff025a8:	24020002 	li	v0,2
8ff025ac:	8fbf001c 	lw	ra,28(sp)
8ff025b0:	24020002 	li	v0,2
8ff025b4:	03e00008 	jr	ra
8ff025b8:	27bd0020 	addiu	sp,sp,32
8ff025bc:	8fa30030 	lw	v1,48(sp)
8ff025c0:	afa50014 	sw	a1,20(sp)
8ff025c4:	afa30010 	sw	v1,16(sp)
8ff025c8:	00c02821 	move	a1,a2
8ff025cc:	24840004 	addiu	a0,a0,4
8ff025d0:	0ffc0ba9 	jal	8ff02ea4 <Ivw9B2872550B104C21A43D30AE8F977>
8ff025d4:	00403021 	move	a2,v0
8ff025d8:	1000fff0 	b	8ff0259c <IvwRunStepEx+0x64>
8ff025dc:	8fbf001c 	lw	ra,28(sp)

8ff025e0 <IvwAppendAudioData>:
8ff025e0:	24840003 	addiu	a0,a0,3
8ff025e4:	2402fffc 	li	v0,-4
8ff025e8:	27bdffe8 	addiu	sp,sp,-24
8ff025ec:	00822024 	and	a0,a0,v0
8ff025f0:	30c6ffff 	andi	a2,a2,0xffff
8ff025f4:	1080001a 	beqz	a0,8ff02660 <IvwAppendAudioData+0x80>
8ff025f8:	afbf0014 	sw	ra,20(sp)
8ff025fc:	10a00018 	beqz	a1,8ff02660 <IvwAppendAudioData+0x80>
8ff02600:	3c032013 	lui	v1,0x2013
8ff02604:	8c820000 	lw	v0,0(a0)
8ff02608:	24670822 	addiu	a3,v1,2082
8ff0260c:	1047000f 	beq	v0,a3,8ff0264c <IvwAppendAudioData+0x6c>
8ff02610:	24670823 	addiu	a3,v1,2083
8ff02614:	0047382b 	sltu	a3,v0,a3
8ff02618:	14e0000a 	bnez	a3,8ff02644 <IvwAppendAudioData+0x64>
8ff0261c:	24630805 	addiu	v1,v1,2053
8ff02620:	3c032014 	lui	v1,0x2014
8ff02624:	24670512 	addiu	a3,v1,1298
8ff02628:	10470008 	beq	v0,a3,8ff0264c <IvwAppendAudioData+0x6c>
8ff0262c:	24630516 	addiu	v1,v1,1302
8ff02630:	10430006 	beq	v0,v1,8ff0264c <IvwAppendAudioData+0x6c>
8ff02634:	8fbf0014 	lw	ra,20(sp)
8ff02638:	24020001 	li	v0,1
8ff0263c:	03e00008 	jr	ra
8ff02640:	27bd0018 	addiu	sp,sp,24
8ff02644:	1443fffc 	bne	v0,v1,8ff02638 <IvwAppendAudioData+0x58>
8ff02648:	8fbf0014 	lw	ra,20(sp)
8ff0264c:	0ffc0f94 	jal	8ff03e50 <Ivw2837A62AC32B84B58FDAF33ACA28B682D>
8ff02650:	24840004 	addiu	a0,a0,4
8ff02654:	8fbf0014 	lw	ra,20(sp)
8ff02658:	03e00008 	jr	ra
8ff0265c:	27bd0018 	addiu	sp,sp,24
8ff02660:	8fbf0014 	lw	ra,20(sp)
8ff02664:	24020002 	li	v0,2
8ff02668:	03e00008 	jr	ra
8ff0266c:	27bd0018 	addiu	sp,sp,24

8ff02670 <IvwReset>:
8ff02670:	1080000a 	beqz	a0,8ff0269c <IvwReset+0x2c>
8ff02674:	24840003 	addiu	a0,a0,3
8ff02678:	2402fffc 	li	v0,-4
8ff0267c:	00822024 	and	a0,a0,v0
8ff02680:	8c830000 	lw	v1,0(a0)
8ff02684:	3c022013 	lui	v0,0x2013
8ff02688:	24420805 	addiu	v0,v0,2053
8ff0268c:	10620005 	beq	v1,v0,8ff026a4 <IvwReset+0x34>
8ff02690:	24020001 	li	v0,1
8ff02694:	03e00008 	jr	ra
8ff02698:	00000000 	nop
8ff0269c:	03e00008 	jr	ra
8ff026a0:	24020002 	li	v0,2
8ff026a4:	27bdffe8 	addiu	sp,sp,-24
8ff026a8:	afbf0014 	sw	ra,20(sp)
8ff026ac:	0ffc0b7f 	jal	8ff02dfc <Ivw16E3158F17AD496CB71B7DB0EE820>
8ff026b0:	24840004 	addiu	a0,a0,4
8ff026b4:	8fbf0014 	lw	ra,20(sp)
8ff026b8:	03e00008 	jr	ra
8ff026bc:	27bd0018 	addiu	sp,sp,24

8ff026c0 <IvwGetVersion>:
8ff026c0:	1080000c 	beqz	a0,8ff026f4 <IvwGetVersion+0x34>
8ff026c4:	00000000 	nop
8ff026c8:	10a0000a 	beqz	a1,8ff026f4 <IvwGetVersion+0x34>
8ff026cc:	00000000 	nop
8ff026d0:	10c00008 	beqz	a2,8ff026f4 <IvwGetVersion+0x34>
8ff026d4:	24030006 	li	v1,6
8ff026d8:	24020003 	li	v0,3
8ff026dc:	a4820000 	sh	v0,0(a0)
8ff026e0:	a4a30000 	sh	v1,0(a1)
8ff026e4:	240303ee 	li	v1,1006
8ff026e8:	00001021 	move	v0,zero
8ff026ec:	03e00008 	jr	ra
8ff026f0:	a4c30000 	sh	v1,0(a2)
8ff026f4:	03e00008 	jr	ra
8ff026f8:	24020002 	li	v0,2

8ff026fc <IvwChkNeededSize>:
8ff026fc:	27bdfff8 	addiu	sp,sp,-8
8ff02700:	97a3001c 	lhu	v1,28(sp)
8ff02704:	2409fffc 	li	t1,-4
8ff02708:	2462ffff 	addiu	v0,v1,-1
8ff0270c:	000350c0 	sll	t2,v1,0x3
8ff02710:	00025880 	sll	t3,v0,0x2
8ff02714:	00024200 	sll	t0,v0,0x8
8ff02718:	254a0003 	addiu	t2,t2,3
8ff0271c:	01684021 	addu	t0,t3,t0
8ff02720:	01495024 	and	t2,t2,t1
8ff02724:	25080003 	addiu	t0,t0,3
8ff02728:	01094024 	and	t0,t0,t1
8ff0272c:	254a113c 	addiu	t2,t2,4412
8ff02730:	afb10004 	sw	s1,4(sp)
8ff02734:	afb00000 	sw	s0,0(sp)
8ff02738:	97a90020 	lhu	t1,32(sp)
8ff0273c:	10600047 	beqz	v1,8ff0285c <IvwChkNeededSize+0x160>
8ff02740:	01484021 	addu	t0,t2,t0
8ff02744:	000950c0 	sll	t2,t1,0x3
8ff02748:	00091940 	sll	v1,t1,0x5
8ff0274c:	01431821 	addu	v1,t2,v1
8ff02750:	8fad0018 	lw	t5,24(sp)
8ff02754:	3042ffff 	andi	v0,v0,0xffff
8ff02758:	00694823 	subu	t1,v1,t1
8ff0275c:	25b00004 	addiu	s0,t5,4
8ff02760:	00021080 	sll	v0,v0,0x2
8ff02764:	0009c880 	sll	t9,t1,0x2
8ff02768:	02028021 	addu	s0,s0,v0
8ff0276c:	27392140 	addiu	t9,t9,8512
8ff02770:	240afffc 	li	t2,-4
8ff02774:	8dae0000 	lw	t6,0(t5)
8ff02778:	01d96021 	addu	t4,t6,t9
8ff0277c:	8d89000c 	lw	t1,12(t4)
8ff02780:	8d8f0010 	lw	t7,16(t4)
8ff02784:	8d830008 	lw	v1,8(t4)
8ff02788:	8d820014 	lw	v0,20(t4)
8ff0278c:	8d980018 	lw	t8,24(t4)
8ff02790:	01e97821 	addu	t7,t7,t1
8ff02794:	01e27821 	addu	t7,t7,v0
8ff02798:	03031021 	addu	v0,t8,v1
8ff0279c:	004f1021 	addu	v0,v0,t7
8ff027a0:	00025880 	sll	t3,v0,0x2
8ff027a4:	00038840 	sll	s1,v1,0x1
8ff027a8:	00021100 	sll	v0,v0,0x4
8ff027ac:	000348c0 	sll	t1,v1,0x3
8ff027b0:	004b5823 	subu	t3,v0,t3
8ff027b4:	02294821 	addu	t1,s1,t1
8ff027b8:	256b0003 	addiu	t3,t3,3
8ff027bc:	25290003 	addiu	t1,t1,3
8ff027c0:	8d820000 	lw	v0,0(t4)
8ff027c4:	016a5824 	and	t3,t3,t2
8ff027c8:	012a4824 	and	t1,t1,t2
8ff027cc:	01694821 	addu	t1,t3,t1
8ff027d0:	01c21021 	addu	v0,t6,v0
8ff027d4:	1060000f 	beqz	v1,8ff02814 <IvwChkNeededSize+0x118>
8ff027d8:	01284021 	addu	t0,t1,t0
8ff027dc:	00034880 	sll	t1,v1,0x2
8ff027e0:	00035900 	sll	t3,v1,0x4
8ff027e4:	01695823 	subu	t3,t3,t1
8ff027e8:	004b5821 	addu	t3,v0,t3
8ff027ec:	8c430000 	lw	v1,0(v0)
8ff027f0:	2442000c 	addiu	v0,v0,12
8ff027f4:	00034880 	sll	t1,v1,0x2
8ff027f8:	00031900 	sll	v1,v1,0x4
8ff027fc:	01231821 	addu	v1,t1,v1
8ff02800:	24630003 	addiu	v1,v1,3
8ff02804:	006a1824 	and	v1,v1,t2
8ff02808:	24630004 	addiu	v1,v1,4
8ff0280c:	144bfff7 	bne	v0,t3,8ff027ec <IvwChkNeededSize+0xf0>
8ff02810:	01034021 	addu	t0,t0,v1
8ff02814:	8d89001c 	lw	t1,28(t4)
8ff02818:	8dc20030 	lw	v0,48(t6)
8ff0281c:	00094840 	sll	t1,t1,0x1
8ff02820:	01384821 	addu	t1,t1,t8
8ff02824:	012f4821 	addu	t1,t1,t7
8ff02828:	00094880 	sll	t1,t1,0x2
8ff0282c:	25290003 	addiu	t1,t1,3
8ff02830:	012a4824 	and	t1,t1,t2
8ff02834:	2c430203 	sltiu	v1,v0,515
8ff02838:	14600005 	bnez	v1,8ff02850 <IvwChkNeededSize+0x154>
8ff0283c:	01094021 	addu	t0,t0,t1
8ff02840:	00021040 	sll	v0,v0,0x1
8ff02844:	24420003 	addiu	v0,v0,3
8ff02848:	004a1024 	and	v0,v0,t2
8ff0284c:	01024021 	addu	t0,t0,v0
8ff02850:	25ad0004 	addiu	t5,t5,4
8ff02854:	15b0ffc7 	bne	t5,s0,8ff02774 <IvwChkNeededSize+0x78>
8ff02858:	25080188 	addiu	t0,t0,392
8ff0285c:	8ca20000 	lw	v0,0(a1)
8ff02860:	0048102b 	sltu	v0,v0,t0
8ff02864:	1440000c 	bnez	v0,8ff02898 <IvwChkNeededSize+0x19c>
8ff02868:	00000000 	nop
8ff0286c:	1080000a 	beqz	a0,8ff02898 <IvwChkNeededSize+0x19c>
8ff02870:	00000000 	nop
8ff02874:	94e30000 	lhu	v1,0(a3)
8ff02878:	2c630024 	sltiu	v1,v1,36
8ff0287c:	1460000b 	bnez	v1,8ff028ac <IvwChkNeededSize+0x1b0>
8ff02880:	00001021 	move	v0,zero
8ff02884:	10c00009 	beqz	a2,8ff028ac <IvwChkNeededSize+0x1b0>
8ff02888:	8fb10004 	lw	s1,4(sp)
8ff0288c:	8fb00000 	lw	s0,0(sp)
8ff02890:	03e00008 	jr	ra
8ff02894:	27bd0008 	addiu	sp,sp,8
8ff02898:	aca80000 	sw	t0,0(a1)
8ff0289c:	94e30000 	lhu	v1,0(a3)
8ff028a0:	2c630024 	sltiu	v1,v1,36
8ff028a4:	1060fff7 	beqz	v1,8ff02884 <IvwChkNeededSize+0x188>
8ff028a8:	24020004 	li	v0,4
8ff028ac:	24020024 	li	v0,36
8ff028b0:	8fb10004 	lw	s1,4(sp)
8ff028b4:	8fb00000 	lw	s0,0(sp)
8ff028b8:	a4e20000 	sh	v0,0(a3)
8ff028bc:	24020004 	li	v0,4
8ff028c0:	03e00008 	jr	ra
8ff028c4:	27bd0008 	addiu	sp,sp,8

8ff028c8 <IvwCreateEx>:
8ff028c8:	27bdffb8 	addiu	sp,sp,-72
8ff028cc:	afb10024 	sw	s1,36(sp)
8ff028d0:	8fb10058 	lw	s1,88(sp)
8ff028d4:	afb3002c 	sw	s3,44(sp)
8ff028d8:	afbf0044 	sw	ra,68(sp)
8ff028dc:	afbe0040 	sw	s8,64(sp)
8ff028e0:	afb7003c 	sw	s7,60(sp)
8ff028e4:	afb60038 	sw	s6,56(sp)
8ff028e8:	afb50034 	sw	s5,52(sp)
8ff028ec:	afb40030 	sw	s4,48(sp)
8ff028f0:	afb20028 	sw	s2,40(sp)
8ff028f4:	afb00020 	sw	s0,32(sp)
8ff028f8:	12200012 	beqz	s1,8ff02944 <IvwCreateEx+0x7c>
8ff028fc:	97b3005c 	lhu	s3,92(sp)
8ff02900:	10a00011 	beqz	a1,8ff02948 <IvwCreateEx+0x80>
8ff02904:	24020002 	li	v0,2
8ff02908:	10e00010 	beqz	a3,8ff0294c <IvwCreateEx+0x84>
8ff0290c:	8fbf0044 	lw	ra,68(sp)
8ff02910:	16600019 	bnez	s3,8ff02978 <IvwCreateEx+0xb0>
8ff02914:	8fbe0040 	lw	s8,64(sp)
8ff02918:	8fb7003c 	lw	s7,60(sp)
8ff0291c:	8fb60038 	lw	s6,56(sp)
8ff02920:	8fb50034 	lw	s5,52(sp)
8ff02924:	8fb40030 	lw	s4,48(sp)
8ff02928:	8fb3002c 	lw	s3,44(sp)
8ff0292c:	8fb20028 	lw	s2,40(sp)
8ff02930:	8fb10024 	lw	s1,36(sp)
8ff02934:	8fb00020 	lw	s0,32(sp)
8ff02938:	24020007 	li	v0,7
8ff0293c:	03e00008 	jr	ra
8ff02940:	27bd0048 	addiu	sp,sp,72
8ff02944:	24020002 	li	v0,2
8ff02948:	8fbf0044 	lw	ra,68(sp)
8ff0294c:	8fbe0040 	lw	s8,64(sp)
8ff02950:	8fb7003c 	lw	s7,60(sp)
8ff02954:	8fb60038 	lw	s6,56(sp)
8ff02958:	8fb50034 	lw	s5,52(sp)
8ff0295c:	8fb40030 	lw	s4,48(sp)
8ff02960:	8fb3002c 	lw	s3,44(sp)
8ff02964:	8fb20028 	lw	s2,40(sp)
8ff02968:	8fb10024 	lw	s1,36(sp)
8ff0296c:	8fb00020 	lw	s0,32(sp)
8ff02970:	03e00008 	jr	ra
8ff02974:	27bd0048 	addiu	sp,sp,72
8ff02978:	267effff 	addiu	s8,s3,-1
8ff0297c:	33c2ffff 	andi	v0,s8,0xffff
8ff02980:	26350004 	addiu	s5,s1,4
8ff02984:	00021080 	sll	v0,v0,0x2
8ff02988:	0080b021 	move	s6,a0
8ff0298c:	00a09021 	move	s2,a1
8ff02990:	00c0b821 	move	s7,a2
8ff02994:	00e0a021 	move	s4,a3
8ff02998:	02208021 	move	s0,s1
8ff0299c:	02a2a821 	addu	s5,s5,v0
8ff029a0:	8e040000 	lw	a0,0(s0)
8ff029a4:	0ffc0ccb 	jal	8ff0332c <IvwResValidate>
8ff029a8:	26100004 	addiu	s0,s0,4
8ff029ac:	1440ffe7 	bnez	v0,8ff0294c <IvwCreateEx+0x84>
8ff029b0:	8fbf0044 	lw	ra,68(sp)
8ff029b4:	1615fffa 	bne	s0,s5,8ff029a0 <IvwCreateEx+0xd8>
8ff029b8:	02c02021 	move	a0,s6
8ff029bc:	afb10010 	sw	s1,16(sp)
8ff029c0:	afb30014 	sw	s3,20(sp)
8ff029c4:	afa00018 	sw	zero,24(sp)
8ff029c8:	02402821 	move	a1,s2
8ff029cc:	02e03021 	move	a2,s7
8ff029d0:	0ffc09bf 	jal	8ff026fc <IvwChkNeededSize>
8ff029d4:	02803821 	move	a3,s4
8ff029d8:	1440ffdb 	bnez	v0,8ff02948 <IvwCreateEx+0x80>
8ff029dc:	26d00003 	addiu	s0,s6,3
8ff029e0:	2402fffc 	li	v0,-4
8ff029e4:	02028024 	and	s0,s0,v0
8ff029e8:	3c022013 	lui	v0,0x2013
8ff029ec:	24420805 	addiu	v0,v0,2053
8ff029f0:	ae020000 	sw	v0,0(s0)
8ff029f4:	001ea080 	sll	s4,s8,0x2
8ff029f8:	001ef200 	sll	s8,s8,0x8
8ff029fc:	029ef021 	addu	s8,s4,s8
8ff02a00:	8e250000 	lw	a1,0(s1)
8ff02a04:	2614113c 	addiu	s4,s0,4412
8ff02a08:	029ea021 	addu	s4,s4,s8
8ff02a0c:	0013a8c0 	sll	s5,s3,0x3
8ff02a10:	0295a821 	addu	s5,s4,s5
8ff02a14:	02e02021 	move	a0,s7
8ff02a18:	0ffc0cf6 	jal	8ff033d8 <IvwInitResidentRAM>
8ff02a1c:	24a520e8 	addiu	a1,a1,8424
8ff02a20:	ae171008 	sw	s7,4104(s0)
8ff02a24:	ae15100c 	sw	s5,4108(s0)
8ff02a28:	ae151014 	sw	s5,4116(s0)
8ff02a2c:	8e420000 	lw	v0,0(s2)
8ff02a30:	26040004 	addiu	a0,s0,4
8ff02a34:	0056b021 	addu	s6,v0,s6
8ff02a38:	ae161010 	sw	s6,4112(s0)
8ff02a3c:	a6001024 	sh	zero,4132(s0)
8ff02a40:	02202821 	move	a1,s1
8ff02a44:	02603021 	move	a2,s3
8ff02a48:	0ffc0b38 	jal	8ff02ce0 <Ivw582A3038F8E94230886E8034F0B5D>
8ff02a4c:	02803821 	move	a3,s4
8ff02a50:	1000ffbe 	b	8ff0294c <IvwCreateEx+0x84>
8ff02a54:	8fbf0044 	lw	ra,68(sp)

8ff02a58 <IvwCreate>:
8ff02a58:	27bdffa8 	addiu	sp,sp,-88
8ff02a5c:	afb00034 	sw	s0,52(sp)
8ff02a60:	8fb00068 	lw	s0,104(sp)
8ff02a64:	afb2003c 	sw	s2,60(sp)
8ff02a68:	afbf0054 	sw	ra,84(sp)
8ff02a6c:	afb70050 	sw	s7,80(sp)
8ff02a70:	afb6004c 	sw	s6,76(sp)
8ff02a74:	afb50048 	sw	s5,72(sp)
8ff02a78:	afb40044 	sw	s4,68(sp)
8ff02a7c:	afb30040 	sw	s3,64(sp)
8ff02a80:	afb10038 	sw	s1,56(sp)
8ff02a84:	12000015 	beqz	s0,8ff02adc <IvwCreate+0x84>
8ff02a88:	97b2006c 	lhu	s2,108(sp)
8ff02a8c:	10a00014 	beqz	a1,8ff02ae0 <IvwCreate+0x88>
8ff02a90:	24020002 	li	v0,2
8ff02a94:	10e00013 	beqz	a3,8ff02ae4 <IvwCreate+0x8c>
8ff02a98:	8fbf0054 	lw	ra,84(sp)
8ff02a9c:	96020038 	lhu	v0,56(s0)
8ff02aa0:	0242102b 	sltu	v0,s2,v0
8ff02aa4:	14400019 	bnez	v0,8ff02b0c <IvwCreate+0xb4>
8ff02aa8:	afb00020 	sw	s0,32(sp)
8ff02aac:	8fbf0054 	lw	ra,84(sp)
8ff02ab0:	8fb70050 	lw	s7,80(sp)
8ff02ab4:	8fb6004c 	lw	s6,76(sp)
8ff02ab8:	8fb50048 	lw	s5,72(sp)
8ff02abc:	8fb40044 	lw	s4,68(sp)
8ff02ac0:	8fb30040 	lw	s3,64(sp)
8ff02ac4:	8fb2003c 	lw	s2,60(sp)
8ff02ac8:	8fb10038 	lw	s1,56(sp)
8ff02acc:	8fb00034 	lw	s0,52(sp)
8ff02ad0:	24020007 	li	v0,7
8ff02ad4:	03e00008 	jr	ra
8ff02ad8:	27bd0058 	addiu	sp,sp,88
8ff02adc:	24020002 	li	v0,2
8ff02ae0:	8fbf0054 	lw	ra,84(sp)
8ff02ae4:	8fb70050 	lw	s7,80(sp)
8ff02ae8:	8fb6004c 	lw	s6,76(sp)
8ff02aec:	8fb50048 	lw	s5,72(sp)
8ff02af0:	8fb40044 	lw	s4,68(sp)
8ff02af4:	8fb30040 	lw	s3,64(sp)
8ff02af8:	8fb2003c 	lw	s2,60(sp)
8ff02afc:	8fb10038 	lw	s1,56(sp)
8ff02b00:	8fb00034 	lw	s0,52(sp)
8ff02b04:	03e00008 	jr	ra
8ff02b08:	27bd0058 	addiu	sp,sp,88
8ff02b0c:	00809821 	move	s3,a0
8ff02b10:	02002021 	move	a0,s0
8ff02b14:	afa70028 	sw	a3,40(sp)
8ff02b18:	00a08821 	move	s1,a1
8ff02b1c:	0ffc0ccb 	jal	8ff0332c <IvwResValidate>
8ff02b20:	00c0a021 	move	s4,a2
8ff02b24:	1440ffee 	bnez	v0,8ff02ae0 <IvwCreate+0x88>
8ff02b28:	8fa70028 	lw	a3,40(sp)
8ff02b2c:	27b60020 	addiu	s6,sp,32
8ff02b30:	24020001 	li	v0,1
8ff02b34:	afb60010 	sw	s6,16(sp)
8ff02b38:	afa20014 	sw	v0,20(sp)
8ff02b3c:	afb20018 	sw	s2,24(sp)
8ff02b40:	02602021 	move	a0,s3
8ff02b44:	02202821 	move	a1,s1
8ff02b48:	0ffc09bf 	jal	8ff026fc <IvwChkNeededSize>
8ff02b4c:	02803021 	move	a2,s4
8ff02b50:	1440ffe3 	bnez	v0,8ff02ae0 <IvwCreate+0x88>
8ff02b54:	26750003 	addiu	s5,s3,3
8ff02b58:	2402fffc 	li	v0,-4
8ff02b5c:	02a2a824 	and	s5,s5,v0
8ff02b60:	3c022013 	lui	v0,0x2013
8ff02b64:	24420805 	addiu	v0,v0,2053
8ff02b68:	26b71144 	addiu	s7,s5,4420
8ff02b6c:	02802021 	move	a0,s4
8ff02b70:	260520e8 	addiu	a1,s0,8424
8ff02b74:	0ffc0cf6 	jal	8ff033d8 <IvwInitResidentRAM>
8ff02b78:	aea20000 	sw	v0,0(s5)
8ff02b7c:	aeb41008 	sw	s4,4104(s5)
8ff02b80:	aeb7100c 	sw	s7,4108(s5)
8ff02b84:	aeb71014 	sw	s7,4116(s5)
8ff02b88:	8e220000 	lw	v0,0(s1)
8ff02b8c:	26a40004 	addiu	a0,s5,4
8ff02b90:	00539821 	addu	s3,v0,s3
8ff02b94:	aeb31010 	sw	s3,4112(s5)
8ff02b98:	a6b21024 	sh	s2,4132(s5)
8ff02b9c:	02c02821 	move	a1,s6
8ff02ba0:	24060001 	li	a2,1
8ff02ba4:	0ffc0b38 	jal	8ff02ce0 <Ivw582A3038F8E94230886E8034F0B5D>
8ff02ba8:	26a7113c 	addiu	a3,s5,4412
8ff02bac:	1000ffcd 	b	8ff02ae4 <IvwCreate+0x8c>
8ff02bb0:	8fbf0054 	lw	ra,84(sp)

8ff02bb4 <IvwSetThresh>:
8ff02bb4:	27bdffd8 	addiu	sp,sp,-40
8ff02bb8:	24840003 	addiu	a0,a0,3
8ff02bbc:	2402fffc 	li	v0,-4
8ff02bc0:	afb2001c 	sw	s2,28(sp)
8ff02bc4:	afb10018 	sw	s1,24(sp)
8ff02bc8:	afb00014 	sw	s0,20(sp)
8ff02bcc:	00058c00 	sll	s1,a1,0x10
8ff02bd0:	00069400 	sll	s2,a2,0x10
8ff02bd4:	00828024 	and	s0,a0,v0
8ff02bd8:	afb30020 	sw	s3,32(sp)
8ff02bdc:	afbf0024 	sw	ra,36(sp)
8ff02be0:	00118c03 	sra	s1,s1,0x10
8ff02be4:	00129403 	sra	s2,s2,0x10
8ff02be8:	12000004 	beqz	s0,8ff02bfc <IvwSetThresh+0x48>
8ff02bec:	30f3ffff 	andi	s3,a3,0xffff
8ff02bf0:	0251102a 	slt	v0,s2,s1
8ff02bf4:	10400009 	beqz	v0,8ff02c1c <IvwSetThresh+0x68>
8ff02bf8:	3c022013 	lui	v0,0x2013
8ff02bfc:	24020002 	li	v0,2
8ff02c00:	8fbf0024 	lw	ra,36(sp)
8ff02c04:	8fb30020 	lw	s3,32(sp)
8ff02c08:	8fb2001c 	lw	s2,28(sp)
8ff02c0c:	8fb10018 	lw	s1,24(sp)
8ff02c10:	8fb00014 	lw	s0,20(sp)
8ff02c14:	03e00008 	jr	ra
8ff02c18:	27bd0028 	addiu	sp,sp,40
8ff02c1c:	8e030000 	lw	v1,0(s0)
8ff02c20:	24420805 	addiu	v0,v0,2053
8ff02c24:	10620009 	beq	v1,v0,8ff02c4c <IvwSetThresh+0x98>
8ff02c28:	00000000 	nop
8ff02c2c:	8fbf0024 	lw	ra,36(sp)
8ff02c30:	8fb30020 	lw	s3,32(sp)
8ff02c34:	8fb2001c 	lw	s2,28(sp)
8ff02c38:	8fb10018 	lw	s1,24(sp)
8ff02c3c:	8fb00014 	lw	s0,20(sp)
8ff02c40:	24020001 	li	v0,1
8ff02c44:	03e00008 	jr	ra
8ff02c48:	27bd0028 	addiu	sp,sp,40
8ff02c4c:	0ffc0b75 	jal	8ff02dd4 <Ivw20CE383A817684C9CA7B801E08BCC5E1E>
8ff02c50:	26040004 	addiu	a0,s0,4
8ff02c54:	1440ffea 	bnez	v0,8ff02c00 <IvwSetThresh+0x4c>
8ff02c58:	8fa4003c 	lw	a0,60(sp)
8ff02c5c:	8e031034 	lw	v1,4148(s0)
8ff02c60:	0083182b 	sltu	v1,a0,v1
8ff02c64:	1060fff1 	beqz	v1,8ff02c2c <IvwSetThresh+0x78>
8ff02c68:	8fa5003c 	lw	a1,60(sp)
8ff02c6c:	00042080 	sll	a0,a0,0x2
8ff02c70:	00051a00 	sll	v1,a1,0x8
8ff02c74:	00831821 	addu	v1,a0,v1
8ff02c78:	02038021 	addu	s0,s0,v1
8ff02c7c:	9603105c 	lhu	v1,4188(s0)
8ff02c80:	8fa60038 	lw	a2,56(sp)
8ff02c84:	00c3182b 	sltu	v1,a2,v1
8ff02c88:	1060ffe8 	beqz	v1,8ff02c2c <IvwSetThresh+0x78>
8ff02c8c:	00062840 	sll	a1,a2,0x1
8ff02c90:	8e04111c 	lw	a0,4380(s0)
8ff02c94:	000618c0 	sll	v1,a2,0x3
8ff02c98:	00a31821 	addu	v1,a1,v1
8ff02c9c:	00832021 	addu	a0,a0,v1
8ff02ca0:	a4910000 	sh	s1,0(a0)
8ff02ca4:	8e04111c 	lw	a0,4380(s0)
8ff02ca8:	00832021 	addu	a0,a0,v1
8ff02cac:	a4920002 	sh	s2,2(a0)
8ff02cb0:	3c04cccc 	lui	a0,0xcccc
8ff02cb4:	3484cccd 	ori	a0,a0,0xcccd
8ff02cb8:	02640019 	multu	s3,a0
8ff02cbc:	8e05111c 	lw	a1,4380(s0)
8ff02cc0:	00002010 	mfhi	a0
8ff02cc4:	00a31821 	addu	v1,a1,v1
8ff02cc8:	000420c2 	srl	a0,a0,0x3
8ff02ccc:	1000ffcc 	b	8ff02c00 <IvwSetThresh+0x4c>
8ff02cd0:	a4640004 	sh	a0,4(v1)
	...

8ff02ce0 <Ivw582A3038F8E94230886E8034F0B5D>:
8ff02ce0:	3c022012 	lui	v0,0x2012
8ff02ce4:	27bdffd8 	addiu	sp,sp,-40
8ff02ce8:	24421018 	addiu	v0,v0,4120
8ff02cec:	afb40020 	sw	s4,32(sp)
8ff02cf0:	afb3001c 	sw	s3,28(sp)
8ff02cf4:	afb20018 	sw	s2,24(sp)
8ff02cf8:	afb10014 	sw	s1,20(sp)
8ff02cfc:	afbf0024 	sw	ra,36(sp)
8ff02d00:	afb00010 	sw	s0,16(sp)
8ff02d04:	ac821018 	sw	v0,4120(a0)
8ff02d08:	24020190 	li	v0,400
8ff02d0c:	30d3ffff 	andi	s3,a2,0xffff
8ff02d10:	ac821028 	sw	v0,4136(a0)
8ff02d14:	2402000a 	li	v0,10
8ff02d18:	00a09021 	move	s2,a1
8ff02d1c:	ac80101c 	sw	zero,4124(a0)
8ff02d20:	ac82102c 	sw	v0,4140(a0)
8ff02d24:	ac931030 	sw	s3,4144(a0)
8ff02d28:	00802821 	move	a1,a0
8ff02d2c:	00e03021 	move	a2,a3
8ff02d30:	0ffc0d56 	jal	8ff03558 <Ivw26983DA04861D5FBEA8BC3031B0E4FDA8>
8ff02d34:	00808821 	move	s1,a0
8ff02d38:	1440001d 	bnez	v0,8ff02db0 <Ivw582A3038F8E94230886E8034F0B5D+0xd0>
8ff02d3c:	0040a021 	move	s4,v0
8ff02d40:	8e420000 	lw	v0,0(s2)
8ff02d44:	244320e8 	addiu	v1,v0,8424
8ff02d48:	24442102 	addiu	a0,v0,8450
8ff02d4c:	2442211c 	addiu	v0,v0,8476
8ff02d50:	ae2309b0 	sw	v1,2480(s1)
8ff02d54:	ae2409b4 	sw	a0,2484(s1)
8ff02d58:	ae2209b8 	sw	v0,2488(s1)
8ff02d5c:	12600014 	beqz	s3,8ff02db0 <Ivw582A3038F8E94230886E8034F0B5D+0xd0>
8ff02d60:	ae231024 	sw	v1,4132(s1)
8ff02d64:	2673ffff 	addiu	s3,s3,-1
8ff02d68:	3273ffff 	andi	s3,s3,0xffff
8ff02d6c:	26730001 	addiu	s3,s3,1
8ff02d70:	10000003 	b	8ff02d80 <Ivw582A3038F8E94230886E8034F0B5D+0xa0>
8ff02d74:	00008021 	move	s0,zero
8ff02d78:	1213000d 	beq	s0,s3,8ff02db0 <Ivw582A3038F8E94230886E8034F0B5D+0xd0>
8ff02d7c:	26520004 	addiu	s2,s2,4
8ff02d80:	00101a00 	sll	v1,s0,0x8
8ff02d84:	00102080 	sll	a0,s0,0x2
8ff02d88:	00832021 	addu	a0,a0,v1
8ff02d8c:	8e450000 	lw	a1,0(s2)
8ff02d90:	02242021 	addu	a0,s1,a0
8ff02d94:	02003821 	move	a3,s0
8ff02d98:	24841034 	addiu	a0,a0,4148
8ff02d9c:	0ffc11b2 	jal	8ff046c8 <Ivw299454EE8C4541DF9A741BB09595E>
8ff02da0:	02203021 	move	a2,s1
8ff02da4:	1040fff4 	beqz	v0,8ff02d78 <Ivw582A3038F8E94230886E8034F0B5D+0x98>
8ff02da8:	26100001 	addiu	s0,s0,1
8ff02dac:	0040a021 	move	s4,v0
8ff02db0:	8fbf0024 	lw	ra,36(sp)
8ff02db4:	02801021 	move	v0,s4
8ff02db8:	8fb3001c 	lw	s3,28(sp)
8ff02dbc:	8fb40020 	lw	s4,32(sp)
8ff02dc0:	8fb20018 	lw	s2,24(sp)
8ff02dc4:	8fb10014 	lw	s1,20(sp)
8ff02dc8:	8fb00010 	lw	s0,16(sp)
8ff02dcc:	03e00008 	jr	ra
8ff02dd0:	27bd0028 	addiu	sp,sp,40

8ff02dd4 <Ivw20CE383A817684C9CA7B801E08BCC5E1E>:
8ff02dd4:	10800007 	beqz	a0,8ff02df4 <Ivw20CE383A817684C9CA7B801E08BCC5E1E+0x20>
8ff02dd8:	00000000 	nop
8ff02ddc:	8c831018 	lw	v1,4120(a0)
8ff02de0:	3c02dfed 	lui	v0,0xdfed
8ff02de4:	3442efe8 	ori	v0,v0,0xefe8
8ff02de8:	00621021 	addu	v0,v1,v0
8ff02dec:	03e00008 	jr	ra
8ff02df0:	0002102b 	sltu	v0,zero,v0
8ff02df4:	03e00008 	jr	ra
8ff02df8:	24020001 	li	v0,1

8ff02dfc <Ivw16E3158F17AD496CB71B7DB0EE820>:
8ff02dfc:	10800006 	beqz	a0,8ff02e18 <Ivw16E3158F17AD496CB71B7DB0EE820+0x1c>
8ff02e00:	00000000 	nop
8ff02e04:	3c022012 	lui	v0,0x2012
8ff02e08:	8c831018 	lw	v1,4120(a0)
8ff02e0c:	24421018 	addiu	v0,v0,4120
8ff02e10:	10620003 	beq	v1,v0,8ff02e20 <Ivw16E3158F17AD496CB71B7DB0EE820+0x24>
8ff02e14:	00000000 	nop
8ff02e18:	03e00008 	jr	ra
8ff02e1c:	24020001 	li	v0,1
8ff02e20:	27bdffe0 	addiu	sp,sp,-32
8ff02e24:	afb10014 	sw	s1,20(sp)
8ff02e28:	00808821 	move	s1,a0
8ff02e2c:	afbf001c 	sw	ra,28(sp)
8ff02e30:	afb20018 	sw	s2,24(sp)
8ff02e34:	0ffc0d3d 	jal	8ff034f4 <Ivw188A484C5F41443CA65C632DCEB00>
8ff02e38:	afb00010 	sw	s0,16(sp)
8ff02e3c:	8e221030 	lw	v0,4144(s1)
8ff02e40:	18400010 	blez	v0,8ff02e84 <Ivw16E3158F17AD496CB71B7DB0EE820+0x88>
8ff02e44:	02209021 	move	s2,s1
8ff02e48:	00008021 	move	s0,zero
8ff02e4c:	00101200 	sll	v0,s0,0x8
8ff02e50:	00102880 	sll	a1,s0,0x2
8ff02e54:	00a22821 	addu	a1,a1,v0
8ff02e58:	02252021 	addu	a0,s1,a1
8ff02e5c:	00802821 	move	a1,a0
8ff02e60:	ae401034 	sw	zero,4148(s2)
8ff02e64:	24841034 	addiu	a0,a0,4148
8ff02e68:	0ffc113c 	jal	8ff044f0 <Ivw6FF21B97FD10412FA6EDD5A515290>
8ff02e6c:	24a5106c 	addiu	a1,a1,4204
8ff02e70:	8e221030 	lw	v0,4144(s1)
8ff02e74:	26100001 	addiu	s0,s0,1
8ff02e78:	0202102a 	slt	v0,s0,v0
8ff02e7c:	1440fff3 	bnez	v0,8ff02e4c <Ivw16E3158F17AD496CB71B7DB0EE820+0x50>
8ff02e80:	26520104 	addiu	s2,s2,260
8ff02e84:	ae20101c 	sw	zero,4124(s1)
8ff02e88:	8fbf001c 	lw	ra,28(sp)
8ff02e8c:	8fb20018 	lw	s2,24(sp)
8ff02e90:	8fb10014 	lw	s1,20(sp)
8ff02e94:	8fb00010 	lw	s0,16(sp)
8ff02e98:	00001021 	move	v0,zero
8ff02e9c:	03e00008 	jr	ra
8ff02ea0:	27bd0020 	addiu	sp,sp,32

8ff02ea4 <Ivw9B2872550B104C21A43D30AE8F977>:
8ff02ea4:	27bdffa8 	addiu	sp,sp,-88
8ff02ea8:	afbf0054 	sw	ra,84(sp)
8ff02eac:	afbe0050 	sw	s8,80(sp)
8ff02eb0:	afb7004c 	sw	s7,76(sp)
8ff02eb4:	afb60048 	sw	s6,72(sp)
8ff02eb8:	afb50044 	sw	s5,68(sp)
8ff02ebc:	afb40040 	sw	s4,64(sp)
8ff02ec0:	afb3003c 	sw	s3,60(sp)
8ff02ec4:	afb20038 	sw	s2,56(sp)
8ff02ec8:	afb10034 	sw	s1,52(sp)
8ff02ecc:	10800007 	beqz	a0,8ff02eec <Ivw9B2872550B104C21A43D30AE8F977+0x48>
8ff02ed0:	afb00030 	sw	s0,48(sp)
8ff02ed4:	00a09021 	move	s2,a1
8ff02ed8:	3c022012 	lui	v0,0x2012
8ff02edc:	8c851018 	lw	a1,4120(a0)
8ff02ee0:	24421018 	addiu	v0,v0,4120
8ff02ee4:	10a2000f 	beq	a1,v0,8ff02f24 <Ivw9B2872550B104C21A43D30AE8F977+0x80>
8ff02ee8:	00000000 	nop
8ff02eec:	241e0001 	li	s8,1
8ff02ef0:	8fbf0054 	lw	ra,84(sp)
8ff02ef4:	03c01021 	move	v0,s8
8ff02ef8:	8fb7004c 	lw	s7,76(sp)
8ff02efc:	8fbe0050 	lw	s8,80(sp)
8ff02f00:	8fb60048 	lw	s6,72(sp)
8ff02f04:	8fb50044 	lw	s5,68(sp)
8ff02f08:	8fb40040 	lw	s4,64(sp)
8ff02f0c:	8fb3003c 	lw	s3,60(sp)
8ff02f10:	8fb20038 	lw	s2,56(sp)
8ff02f14:	8fb10034 	lw	s1,52(sp)
8ff02f18:	8fb00030 	lw	s0,48(sp)
8ff02f1c:	03e00008 	jr	ra
8ff02f20:	27bd0058 	addiu	sp,sp,88
8ff02f24:	8c82101c 	lw	v0,4124(a0)
8ff02f28:	1040000e 	beqz	v0,8ff02f64 <Ivw9B2872550B104C21A43D30AE8F977+0xc0>
8ff02f2c:	8fbf0054 	lw	ra,84(sp)
8ff02f30:	241e0008 	li	s8,8
8ff02f34:	03c01021 	move	v0,s8
8ff02f38:	8fb7004c 	lw	s7,76(sp)
8ff02f3c:	8fbe0050 	lw	s8,80(sp)
8ff02f40:	8fb60048 	lw	s6,72(sp)
8ff02f44:	8fb50044 	lw	s5,68(sp)
8ff02f48:	8fb40040 	lw	s4,64(sp)
8ff02f4c:	8fb3003c 	lw	s3,60(sp)
8ff02f50:	8fb20038 	lw	s2,56(sp)
8ff02f54:	8fb10034 	lw	s1,52(sp)
8ff02f58:	8fb00030 	lw	s0,48(sp)
8ff02f5c:	03e00008 	jr	ra
8ff02f60:	27bd0058 	addiu	sp,sp,88
8ff02f64:	00e08021 	move	s0,a3
8ff02f68:	2402ffff 	li	v0,-1
8ff02f6c:	8c871030 	lw	a3,4144(a0)
8ff02f70:	00c08821 	move	s1,a2
8ff02f74:	ac82101c 	sw	v0,4124(a0)
8ff02f78:	00002821 	move	a1,zero
8ff02f7c:	24861034 	addiu	a2,a0,4148
8ff02f80:	0ffc0ffa 	jal	8ff03fe8 <Ivw2022E41F49DAC4CF0BCC85778473A7E5F>
8ff02f84:	0080b021 	move	s6,a0
8ff02f88:	144000c2 	bnez	v0,8ff03294 <Ivw9B2872550B104C21A43D30AE8F977+0x3f0>
8ff02f8c:	00000000 	nop
8ff02f90:	8ec21030 	lw	v0,4144(s6)
8ff02f94:	104000d5 	beqz	v0,8ff032ec <Ivw9B2872550B104C21A43D30AE8F977+0x448>
8ff02f98:	0000f021 	move	s8,zero
8ff02f9c:	2403ffff 	li	v1,-1
8ff02fa0:	afa3002c 	sw	v1,44(sp)
8ff02fa4:	afa30028 	sw	v1,40(sp)
8ff02fa8:	24038000 	li	v1,-32768
8ff02fac:	0000a021 	move	s4,zero
8ff02fb0:	00009821 	move	s3,zero
8ff02fb4:	afa00020 	sw	zero,32(sp)
8ff02fb8:	afa30024 	sw	v1,36(sp)
8ff02fbc:	10000014 	b	8ff03010 <Ivw9B2872550B104C21A43D30AE8F977+0x16c>
8ff02fc0:	0000b821 	move	s7,zero
8ff02fc4:	8ea20038 	lw	v0,56(s5)
8ff02fc8:	1040000c 	beqz	v0,8ff02ffc <Ivw9B2872550B104C21A43D30AE8F977+0x158>
8ff02fcc:	3c03002e 	lui	v1,0x2e
8ff02fd0:	000221c2 	srl	a0,v0,0x7
8ff02fd4:	34639a77 	ori	v1,v1,0x9a77
8ff02fd8:	00830019 	multu	a0,v1
8ff02fdc:	3c03000a 	lui	v1,0xa
8ff02fe0:	00002010 	mfhi	a0
8ff02fe4:	3463fc80 	ori	v1,v1,0xfc80
8ff02fe8:	00042082 	srl	a0,a0,0x2
8ff02fec:	70832802 	mul	a1,a0,v1
8ff02ff0:	00451023 	subu	v0,v0,a1
8ff02ff4:	10400033 	beqz	v0,8ff030c4 <Ivw9B2872550B104C21A43D30AE8F977+0x220>
8ff02ff8:	02a02021 	move	a0,s5
8ff02ffc:	8ec21030 	lw	v0,4144(s6)
8ff03000:	26f70001 	addiu	s7,s7,1
8ff03004:	02e2102b 	sltu	v0,s7,v0
8ff03008:	10400034 	beqz	v0,8ff030dc <Ivw9B2872550B104C21A43D30AE8F977+0x238>
8ff0300c:	24020032 	li	v0,50
8ff03010:	00171200 	sll	v0,s7,0x8
8ff03014:	00175080 	sll	t2,s7,0x2
8ff03018:	01425021 	addu	t2,t2,v0
8ff0301c:	02ca5021 	addu	t2,s6,t2
8ff03020:	8fa5006c 	lw	a1,108(sp)
8ff03024:	25551034 	addiu	s5,t2,4148
8ff03028:	8fa70068 	lw	a3,104(sp)
8ff0302c:	afa50010 	sw	a1,16(sp)
8ff03030:	02a02021 	move	a0,s5
8ff03034:	02202821 	move	a1,s1
8ff03038:	0ffc199f 	jal	8ff0667c <IvwCCC1A45DB2A74B96A92DD89E87CAB>
8ff0303c:	02003021 	move	a2,s0
8ff03040:	8ea400fc 	lw	a0,252(s5)
8ff03044:	10800006 	beqz	a0,8ff03060 <Ivw9B2872550B104C21A43D30AE8F977+0x1bc>
8ff03048:	24040032 	li	a0,50
8ff0304c:	8ea400f8 	lw	a0,248(s5)
8ff03050:	2403ffff 	li	v1,-1
8ff03054:	0064a00b 	movn	s4,v1,a0
8ff03058:	0064980b 	movn	s3,v1,a0
8ff0305c:	24040032 	li	a0,50
8ff03060:	1444ffd8 	bne	v0,a0,8ff02fc4 <Ivw9B2872550B104C21A43D30AE8F977+0x120>
8ff03064:	00000000 	nop
8ff03068:	8ea20100 	lw	v0,256(s5)
8ff0306c:	8ec41028 	lw	a0,4136(s6)
8ff03070:	0082202b 	sltu	a0,a0,v0
8ff03074:	1480ffd3 	bnez	a0,8ff02fc4 <Ivw9B2872550B104C21A43D30AE8F977+0x120>
8ff03078:	00000000 	nop
8ff0307c:	8ec4102c 	lw	a0,4140(s6)
8ff03080:	0044102b 	sltu	v0,v0,a0
8ff03084:	1440ffcf 	bnez	v0,8ff02fc4 <Ivw9B2872550B104C21A43D30AE8F977+0x120>
8ff03088:	8fa30024 	lw	v1,36(sp)
8ff0308c:	86220000 	lh	v0,0(s1)
8ff03090:	0062202a 	slt	a0,v1,v0
8ff03094:	10800007 	beqz	a0,8ff030b4 <Ivw9B2872550B104C21A43D30AE8F977+0x210>
8ff03098:	00000000 	nop
8ff0309c:	86030000 	lh	v1,0(s0)
8ff030a0:	afa20024 	sw	v0,36(sp)
8ff030a4:	afa30028 	sw	v1,40(sp)
8ff030a8:	00171c00 	sll	v1,s7,0x10
8ff030ac:	00031c03 	sra	v1,v1,0x10
8ff030b0:	afa3002c 	sw	v1,44(sp)
8ff030b4:	0ffc0d7b 	jal	8ff035ec <Ivw235355BEEBC4D4A84148ADDC67987B9A1>
8ff030b8:	02c02021 	move	a0,s6
8ff030bc:	1000ffcf 	b	8ff02ffc <Ivw9B2872550B104C21A43D30AE8F977+0x158>
8ff030c0:	241e0032 	li	s8,50
8ff030c4:	0ffc113c 	jal	8ff044f0 <Ivw6FF21B97FD10412FA6EDD5A515290>
8ff030c8:	26a50038 	addiu	a1,s5,56
8ff030cc:	8fa30020 	lw	v1,32(sp)
8ff030d0:	24630001 	addiu	v1,v1,1
8ff030d4:	1000ffc9 	b	8ff02ffc <Ivw9B2872550B104C21A43D30AE8F977+0x158>
8ff030d8:	afa30020 	sw	v1,32(sp)
8ff030dc:	13c2000b 	beq	s8,v0,8ff0310c <Ivw9B2872550B104C21A43D30AE8F977+0x268>
8ff030e0:	03c0a821 	move	s5,s8
8ff030e4:	12600003 	beqz	s3,8ff030f4 <Ivw9B2872550B104C21A43D30AE8F977+0x250>
8ff030e8:	00000000 	nop
8ff030ec:	16800052 	bnez	s4,8ff03238 <Ivw9B2872550B104C21A43D30AE8F977+0x394>
8ff030f0:	00000000 	nop
8ff030f4:	8ec21030 	lw	v0,4144(s6)
8ff030f8:	8fa30020 	lw	v1,32(sp)
8ff030fc:	1062002f 	beq	v1,v0,8ff031bc <Ivw9B2872550B104C21A43D30AE8F977+0x318>
8ff03100:	00000000 	nop
8ff03104:	1000ff7a 	b	8ff02ef0 <Ivw9B2872550B104C21A43D30AE8F977+0x4c>
8ff03108:	aec0101c 	sw	zero,4124(s6)
8ff0310c:	8fa3002c 	lw	v1,44(sp)
8ff03110:	00031200 	sll	v0,v1,0x8
8ff03114:	00032080 	sll	a0,v1,0x2
8ff03118:	00822021 	addu	a0,a0,v0
8ff0311c:	8fa30028 	lw	v1,40(sp)
8ff03120:	02c42021 	addu	a0,s6,a0
8ff03124:	00032840 	sll	a1,v1,0x1
8ff03128:	000310c0 	sll	v0,v1,0x3
8ff0312c:	8c841118 	lw	a0,4376(a0)
8ff03130:	00a21021 	addu	v0,a1,v0
8ff03134:	00821021 	addu	v0,a0,v0
8ff03138:	84440002 	lh	a0,2(v0)
8ff0313c:	8fa30024 	lw	v1,36(sp)
8ff03140:	0083202a 	slt	a0,a0,v1
8ff03144:	10800060 	beqz	a0,8ff032c8 <Ivw9B2872550B104C21A43D30AE8F977+0x424>
8ff03148:	24050001 	li	a1,1
8ff0314c:	a4400006 	sh	zero,6(v0)
8ff03150:	a4400008 	sh	zero,8(v0)
8ff03154:	0ffc0d3d 	jal	8ff034f4 <Ivw188A484C5F41443CA65C632DCEB00>
8ff03158:	02c02021 	move	a0,s6
8ff0315c:	8ec21030 	lw	v0,4144(s6)
8ff03160:	0000b821 	move	s7,zero
8ff03164:	1440000e 	bnez	v0,8ff031a0 <Ivw9B2872550B104C21A43D30AE8F977+0x2fc>
8ff03168:	241e0032 	li	s8,50
8ff0316c:	1000004c 	b	8ff032a0 <Ivw9B2872550B104C21A43D30AE8F977+0x3fc>
8ff03170:	8fa3002c 	lw	v1,44(sp)
8ff03174:	00a22821 	addu	a1,a1,v0
8ff03178:	24a51030 	addiu	a1,a1,4144
8ff0317c:	02c52821 	addu	a1,s6,a1
8ff03180:	24a40004 	addiu	a0,a1,4
8ff03184:	0ffc113c 	jal	8ff044f0 <Ivw6FF21B97FD10412FA6EDD5A515290>
8ff03188:	24a5003c 	addiu	a1,a1,60
8ff0318c:	8ec21030 	lw	v0,4144(s6)
8ff03190:	26f70001 	addiu	s7,s7,1
8ff03194:	02e2102b 	sltu	v0,s7,v0
8ff03198:	10400041 	beqz	v0,8ff032a0 <Ivw9B2872550B104C21A43D30AE8F977+0x3fc>
8ff0319c:	8fa3002c 	lw	v1,44(sp)
8ff031a0:	00172880 	sll	a1,s7,0x2
8ff031a4:	16befff3 	bne	s5,s8,8ff03174 <Ivw9B2872550B104C21A43D30AE8F977+0x2d0>
8ff031a8:	00171200 	sll	v0,s7,0x8
8ff031ac:	00a22021 	addu	a0,a1,v0
8ff031b0:	02c42021 	addu	a0,s6,a0
8ff031b4:	1000ffef 	b	8ff03174 <Ivw9B2872550B104C21A43D30AE8F977+0x2d0>
8ff031b8:	ac801034 	sw	zero,4148(a0)
8ff031bc:	02c02021 	move	a0,s6
8ff031c0:	afa0001c 	sw	zero,28(sp)
8ff031c4:	0ffc0d3d 	jal	8ff034f4 <Ivw188A484C5F41443CA65C632DCEB00>
8ff031c8:	afa00018 	sw	zero,24(sp)
8ff031cc:	8ec51024 	lw	a1,4132(s6)
8ff031d0:	26c9001a 	addiu	t1,s6,26
8ff031d4:	02c01021 	move	v0,s6
8ff031d8:	00562023 	subu	a0,v0,s6
8ff031dc:	8ec708b4 	lw	a3,2228(s6)
8ff031e0:	00a42821 	addu	a1,a1,a0
8ff031e4:	84a60000 	lh	a2,0(a1)
8ff031e8:	00e42821 	addu	a1,a3,a0
8ff031ec:	a4a60000 	sh	a2,0(a1)
8ff031f0:	8ec51024 	lw	a1,4132(s6)
8ff031f4:	24420002 	addiu	v0,v0,2
8ff031f8:	00a42021 	addu	a0,a1,a0
8ff031fc:	84860000 	lh	a2,0(a0)
8ff03200:	a446083e 	sh	a2,2110(v0)
8ff03204:	84840000 	lh	a0,0(a0)
8ff03208:	1449fff3 	bne	v0,t1,8ff031d8 <Ivw9B2872550B104C21A43D30AE8F977+0x334>
8ff0320c:	a4440896 	sh	a0,2198(v0)
8ff03210:	8ec408b4 	lw	a0,2228(s6)
8ff03214:	2405001a 	li	a1,26
8ff03218:	27a6001c 	addiu	a2,sp,28
8ff0321c:	0ffc1a50 	jal	8ff06940 <Ivw0873AEAB2019445EA5D4EBE39BE96>
8ff03220:	27a70018 	addiu	a3,sp,24
8ff03224:	8ec208b8 	lw	v0,2232(s6)
8ff03228:	8fa4001c 	lw	a0,28(sp)
8ff0322c:	ac440000 	sw	a0,0(v0)
8ff03230:	1000ff2f 	b	8ff02ef0 <Ivw9B2872550B104C21A43D30AE8F977+0x4c>
8ff03234:	aec0101c 	sw	zero,4124(s6)
8ff03238:	0ffc0d7b 	jal	8ff035ec <Ivw235355BEEBC4D4A84148ADDC67987B9A1>
8ff0323c:	02c02021 	move	a0,s6
8ff03240:	0ffc0d3d 	jal	8ff034f4 <Ivw188A484C5F41443CA65C632DCEB00>
8ff03244:	02c02021 	move	a0,s6
8ff03248:	8ec21030 	lw	v0,4144(s6)
8ff0324c:	1040ffaa 	beqz	v0,8ff030f8 <Ivw9B2872550B104C21A43D30AE8F977+0x254>
8ff03250:	00001021 	move	v0,zero
8ff03254:	00008021 	move	s0,zero
8ff03258:	00101200 	sll	v0,s0,0x8
8ff0325c:	00102880 	sll	a1,s0,0x2
8ff03260:	00a22821 	addu	a1,a1,v0
8ff03264:	24a51030 	addiu	a1,a1,4144
8ff03268:	02c52821 	addu	a1,s6,a1
8ff0326c:	24a40004 	addiu	a0,a1,4
8ff03270:	0ffc113c 	jal	8ff044f0 <Ivw6FF21B97FD10412FA6EDD5A515290>
8ff03274:	24a5003c 	addiu	a1,a1,60
8ff03278:	8ec21030 	lw	v0,4144(s6)
8ff0327c:	26100001 	addiu	s0,s0,1
8ff03280:	0202202b 	sltu	a0,s0,v0
8ff03284:	1480fff4 	bnez	a0,8ff03258 <Ivw9B2872550B104C21A43D30AE8F977+0x3b4>
8ff03288:	8fa30020 	lw	v1,32(sp)
8ff0328c:	1000ff9b 	b	8ff030fc <Ivw9B2872550B104C21A43D30AE8F977+0x258>
8ff03290:	00000000 	nop
8ff03294:	aec0101c 	sw	zero,4124(s6)
8ff03298:	1000ff15 	b	8ff02ef0 <Ivw9B2872550B104C21A43D30AE8F977+0x4c>
8ff0329c:	0040f021 	move	s8,v0
8ff032a0:	24020032 	li	v0,50
8ff032a4:	a6430000 	sh	v1,0(s2)
8ff032a8:	8fa30028 	lw	v1,40(sp)
8ff032ac:	a6030000 	sh	v1,0(s0)
8ff032b0:	8fa30024 	lw	v1,36(sp)
8ff032b4:	16a2000f 	bne	s5,v0,8ff032f4 <Ivw9B2872550B104C21A43D30AE8F977+0x450>
8ff032b8:	a6230000 	sh	v1,0(s1)
8ff032bc:	8ec21030 	lw	v0,4144(s6)
8ff032c0:	1000ff8d 	b	8ff030f8 <Ivw9B2872550B104C21A43D30AE8F977+0x254>
8ff032c4:	241e0032 	li	s8,50
8ff032c8:	94440006 	lhu	a0,6(v0)
8ff032cc:	24840001 	addiu	a0,a0,1
8ff032d0:	00042400 	sll	a0,a0,0x10
8ff032d4:	00042403 	sra	a0,a0,0x10
8ff032d8:	1485ff9e 	bne	a0,a1,8ff03154 <Ivw9B2872550B104C21A43D30AE8F977+0x2b0>
8ff032dc:	a4440006 	sh	a0,6(v0)
8ff032e0:	a4400008 	sh	zero,8(v0)
8ff032e4:	1000ff9b 	b	8ff03154 <Ivw9B2872550B104C21A43D30AE8F977+0x2b0>
8ff032e8:	0000a821 	move	s5,zero
8ff032ec:	1000ff82 	b	8ff030f8 <Ivw9B2872550B104C21A43D30AE8F977+0x254>
8ff032f0:	afa00020 	sw	zero,32(sp)
8ff032f4:	1000ff7b 	b	8ff030e4 <Ivw9B2872550B104C21A43D30AE8F977+0x240>
8ff032f8:	02a0f021 	move	s8,s5

8ff032fc <Ivw2681C72D235E04AAB07BE4B52CFC2455C>:
8ff032fc:	8c820000 	lw	v0,0(a0)
8ff03300:	24c60003 	addiu	a2,a2,3
8ff03304:	2403fffc 	li	v1,-4
8ff03308:	00c31824 	and	v1,a2,v1
8ff0330c:	00431821 	addu	v1,v0,v1
8ff03310:	00a3282b 	sltu	a1,a1,v1
8ff03314:	14a00003 	bnez	a1,8ff03324 <Ivw2681C72D235E04AAB07BE4B52CFC2455C+0x28>
8ff03318:	00000000 	nop
8ff0331c:	03e00008 	jr	ra
8ff03320:	ac830000 	sw	v1,0(a0)
8ff03324:	03e00008 	jr	ra
8ff03328:	00001021 	move	v0,zero

8ff0332c <IvwResValidate>:
8ff0332c:	3c022012 	lui	v0,0x2012
8ff03330:	8c830008 	lw	v1,8(a0)
8ff03334:	24421023 	addiu	v0,v0,4131
8ff03338:	10620003 	beq	v1,v0,8ff03348 <IvwResValidate+0x1c>
8ff0333c:	24020007 	li	v0,7
8ff03340:	03e00008 	jr	ra
8ff03344:	00000000 	nop
8ff03348:	27bdffe0 	addiu	sp,sp,-32
8ff0334c:	afb00018 	sw	s0,24(sp)
8ff03350:	afbf001c 	sw	ra,28(sp)
8ff03354:	8c850004 	lw	a1,4(a0)
8ff03358:	00808021 	move	s0,a0
8ff0335c:	00052840 	sll	a1,a1,0x1
8ff03360:	24840008 	addiu	a0,a0,8
8ff03364:	27a60014 	addiu	a2,sp,20
8ff03368:	27a70010 	addiu	a3,sp,16
8ff0336c:	afa00014 	sw	zero,20(sp)
8ff03370:	0ffc1a50 	jal	8ff06940 <Ivw0873AEAB2019445EA5D4EBE39BE96>
8ff03374:	afa00010 	sw	zero,16(sp)
8ff03378:	8e030000 	lw	v1,0(s0)
8ff0337c:	8fa20014 	lw	v0,20(sp)
8ff03380:	10620006 	beq	v1,v0,8ff0339c <IvwResValidate+0x70>
8ff03384:	24022e33 	li	v0,11827
8ff03388:	24020007 	li	v0,7
8ff0338c:	8fbf001c 	lw	ra,28(sp)
8ff03390:	8fb00018 	lw	s0,24(sp)
8ff03394:	03e00008 	jr	ra
8ff03398:	27bd0020 	addiu	sp,sp,32
8ff0339c:	9603000c 	lhu	v1,12(s0)
8ff033a0:	1462fffa 	bne	v1,v0,8ff0338c <IvwResValidate+0x60>
8ff033a4:	24020007 	li	v0,7
8ff033a8:	9602000e 	lhu	v0,14(s0)
8ff033ac:	2c432e35 	sltiu	v1,v0,11829
8ff033b0:	1460fff5 	bnez	v1,8ff03388 <IvwResValidate+0x5c>
8ff033b4:	24032e35 	li	v1,11829
8ff033b8:	1443fff4 	bne	v0,v1,8ff0338c <IvwResValidate+0x60>
8ff033bc:	00001021 	move	v0,zero
8ff033c0:	96020012 	lhu	v0,18(s0)
8ff033c4:	2c423430 	sltiu	v0,v0,13360
8ff033c8:	1440ffef 	bnez	v0,8ff03388 <IvwResValidate+0x5c>
8ff033cc:	8fbf001c 	lw	ra,28(sp)
8ff033d0:	1000fff0 	b	8ff03394 <IvwResValidate+0x68>
8ff033d4:	8fb00018 	lw	s0,24(sp)

8ff033d8 <IvwInitResidentRAM>:
8ff033d8:	27bdffd8 	addiu	sp,sp,-40
8ff033dc:	afb20020 	sw	s2,32(sp)
8ff033e0:	24920008 	addiu	s2,a0,8
8ff033e4:	afb1001c 	sw	s1,28(sp)
8ff033e8:	afb00018 	sw	s0,24(sp)
8ff033ec:	00a08821 	move	s1,a1
8ff033f0:	00808021 	move	s0,a0
8ff033f4:	2405001a 	li	a1,26
8ff033f8:	02402021 	move	a0,s2
8ff033fc:	27a60014 	addiu	a2,sp,20
8ff03400:	27a70010 	addiu	a3,sp,16
8ff03404:	afbf0024 	sw	ra,36(sp)
8ff03408:	afa00014 	sw	zero,20(sp)
8ff0340c:	0ffc1a50 	jal	8ff06940 <Ivw0873AEAB2019445EA5D4EBE39BE96>
8ff03410:	afa00010 	sw	zero,16(sp)
8ff03414:	3c022012 	lui	v0,0x2012
8ff03418:	8e030000 	lw	v1,0(s0)
8ff0341c:	24421018 	addiu	v0,v0,4120
8ff03420:	1062001b 	beq	v1,v0,8ff03490 <IvwInitResidentRAM+0xb8>
8ff03424:	8fa20014 	lw	v0,20(sp)
8ff03428:	00001021 	move	v0,zero
8ff0342c:	2405001a 	li	a1,26
8ff03430:	02221821 	addu	v1,s1,v0
8ff03434:	84660000 	lh	a2,0(v1)
8ff03438:	02021821 	addu	v1,s0,v0
8ff0343c:	24420002 	addiu	v0,v0,2
8ff03440:	1445fffb 	bne	v0,a1,8ff03430 <IvwInitResidentRAM+0x58>
8ff03444:	a4660008 	sh	a2,8(v1)
8ff03448:	02402021 	move	a0,s2
8ff0344c:	2405001a 	li	a1,26
8ff03450:	27a60014 	addiu	a2,sp,20
8ff03454:	27a70010 	addiu	a3,sp,16
8ff03458:	afa00014 	sw	zero,20(sp)
8ff0345c:	0ffc1a50 	jal	8ff06940 <Ivw0873AEAB2019445EA5D4EBE39BE96>
8ff03460:	afa00010 	sw	zero,16(sp)
8ff03464:	8fa20014 	lw	v0,20(sp)
8ff03468:	ae020004 	sw	v0,4(s0)
8ff0346c:	3c022012 	lui	v0,0x2012
8ff03470:	24421018 	addiu	v0,v0,4120
8ff03474:	ae020000 	sw	v0,0(s0)
8ff03478:	8fbf0024 	lw	ra,36(sp)
8ff0347c:	8fb20020 	lw	s2,32(sp)
8ff03480:	8fb1001c 	lw	s1,28(sp)
8ff03484:	8fb00018 	lw	s0,24(sp)
8ff03488:	03e00008 	jr	ra
8ff0348c:	27bd0028 	addiu	sp,sp,40
8ff03490:	8e030004 	lw	v1,4(s0)
8ff03494:	1462ffe5 	bne	v1,v0,8ff0342c <IvwInitResidentRAM+0x54>
8ff03498:	00001021 	move	v0,zero
8ff0349c:	1000fff7 	b	8ff0347c <IvwInitResidentRAM+0xa4>
8ff034a0:	8fbf0024 	lw	ra,36(sp)
	...

8ff034b0 <Ivw6D2E95BD768E495BA5730EC448141>:
8ff034b0:	00801021 	move	v0,a0
8ff034b4:	00001821 	move	v1,zero
8ff034b8:	2405000d 	li	a1,13
8ff034bc:	24630001 	addiu	v1,v1,1
8ff034c0:	ac40080c 	sw	zero,2060(v0)
8ff034c4:	ac400864 	sw	zero,2148(v0)
8ff034c8:	1465fffc 	bne	v1,a1,8ff034bc <Ivw6D2E95BD768E495BA5730EC448141+0xc>
8ff034cc:	24420004 	addiu	v0,v0,4
8ff034d0:	24030038 	li	v1,56
8ff034d4:	24020400 	li	v0,1024
8ff034d8:	ac800808 	sw	zero,2056(a0)
8ff034dc:	ac800860 	sw	zero,2144(a0)
8ff034e0:	a4830804 	sh	v1,2052(a0)
8ff034e4:	a4820806 	sh	v0,2054(a0)
8ff034e8:	a483085a 	sh	v1,2138(a0)
8ff034ec:	03e00008 	jr	ra
8ff034f0:	a482085c 	sh	v0,2140(a0)

8ff034f4 <Ivw188A484C5F41443CA65C632DCEB00>:
8ff034f4:	27bdffe8 	addiu	sp,sp,-24
8ff034f8:	24050400 	li	a1,1024
8ff034fc:	afbf0014 	sw	ra,20(sp)
8ff03500:	afb00010 	sw	s0,16(sp)
8ff03504:	0ffc19d0 	jal	8ff06740 <Ivw6F3AC527286E4ACE8A9D00C043242>
8ff03508:	00808021 	move	s0,a0
8ff0350c:	24020004 	li	v0,4
8ff03510:	a60209a6 	sh	v0,2470(s0)
8ff03514:	02002021 	move	a0,s0
8ff03518:	ae0009a8 	sw	zero,2472(s0)
8ff0351c:	ae0009ac 	sw	zero,2476(s0)
8ff03520:	a60009bc 	sh	zero,2492(s0)
8ff03524:	0ffc0d2c 	jal	8ff034b0 <Ivw6D2E95BD768E495BA5730EC448141>
8ff03528:	a60009be 	sh	zero,2494(s0)
8ff0352c:	00001021 	move	v0,zero
8ff03530:	24050001 	li	a1,1
8ff03534:	24040640 	li	a0,1600
8ff03538:	02021821 	addu	v1,s0,v0
8ff0353c:	24420004 	addiu	v0,v0,4
8ff03540:	1444fffd 	bne	v0,a0,8ff03538 <Ivw188A484C5F41443CA65C632DCEB00+0x44>
8ff03544:	ac6509c4 	sw	a1,2500(v1)
8ff03548:	8fbf0014 	lw	ra,20(sp)
8ff0354c:	8fb00010 	lw	s0,16(sp)
8ff03550:	03e00008 	jr	ra
8ff03554:	27bd0018 	addiu	sp,sp,24

8ff03558 <Ivw26983DA04861D5FBEA8BC3031B0E4FDA8>:
8ff03558:	10800022 	beqz	a0,8ff035e4 <Ivw26983DA04861D5FBEA8BC3031B0E4FDA8+0x8c>
8ff0355c:	00000000 	nop
8ff03560:	10a00020 	beqz	a1,8ff035e4 <Ivw26983DA04861D5FBEA8BC3031B0E4FDA8+0x8c>
8ff03564:	00000000 	nop
8ff03568:	10c0001e 	beqz	a2,8ff035e4 <Ivw26983DA04861D5FBEA8BC3031B0E4FDA8+0x8c>
8ff0356c:	00000000 	nop
8ff03570:	27bdffe8 	addiu	sp,sp,-24
8ff03574:	afbf0014 	sw	ra,20(sp)
8ff03578:	afb00010 	sw	s0,16(sp)
8ff0357c:	a48009bc 	sh	zero,2492(a0)
8ff03580:	a48009be 	sh	zero,2494(a0)
8ff03584:	8ca31004 	lw	v1,4100(a1)
8ff03588:	00808021 	move	s0,a0
8ff0358c:	24630008 	addiu	v1,v1,8
8ff03590:	ae0308b4 	sw	v1,2228(s0)
8ff03594:	00c01021 	move	v0,a2
8ff03598:	8ca61004 	lw	a2,4100(a1)
8ff0359c:	00602821 	move	a1,v1
8ff035a0:	24c30004 	addiu	v1,a2,4
8ff035a4:	ae0209c0 	sw	v0,2496(s0)
8ff035a8:	ae0308b8 	sw	v1,2232(s0)
8ff035ac:	24840840 	addiu	a0,a0,2112
8ff035b0:	0ffc19d8 	jal	8ff06760 <Ivw138EB59E9E47409CA505802FBDF80>
8ff035b4:	2406001a 	li	a2,26
8ff035b8:	8e0508b4 	lw	a1,2228(s0)
8ff035bc:	26040898 	addiu	a0,s0,2200
8ff035c0:	0ffc19d8 	jal	8ff06760 <Ivw138EB59E9E47409CA505802FBDF80>
8ff035c4:	2406001a 	li	a2,26
8ff035c8:	0ffc0d3d 	jal	8ff034f4 <Ivw188A484C5F41443CA65C632DCEB00>
8ff035cc:	02002021 	move	a0,s0
8ff035d0:	8fbf0014 	lw	ra,20(sp)
8ff035d4:	8fb00010 	lw	s0,16(sp)
8ff035d8:	00001021 	move	v0,zero
8ff035dc:	03e00008 	jr	ra
8ff035e0:	27bd0018 	addiu	sp,sp,24
8ff035e4:	03e00008 	jr	ra
8ff035e8:	24020002 	li	v0,2

8ff035ec <Ivw235355BEEBC4D4A84148ADDC67987B9A1>:
8ff035ec:	84880808 	lh	t0,2056(a0)
8ff035f0:	29020015 	slti	v0,t0,21
8ff035f4:	14400047 	bnez	v0,8ff03714 <Ivw235355BEEBC4D4A84148ADDC67987B9A1+0x128>
8ff035f8:	00000000 	nop
8ff035fc:	27bdffd8 	addiu	sp,sp,-40
8ff03600:	afb00020 	sw	s0,32(sp)
8ff03604:	afbf0024 	sw	ra,36(sp)
8ff03608:	00808021 	move	s0,a0
8ff0360c:	8c8408b4 	lw	a0,2228(a0)
8ff03610:	afa00014 	sw	zero,20(sp)
8ff03614:	afa00010 	sw	zero,16(sp)
8ff03618:	260b0034 	addiu	t3,s0,52
8ff0361c:	02001821 	move	v1,s0
8ff03620:	02001021 	move	v0,s0
8ff03624:	8c45080c 	lw	a1,2060(v0)
8ff03628:	00703023 	subu	a2,v1,s0
8ff0362c:	00a8001a 	div	zero,a1,t0
8ff03630:	00862021 	addu	a0,a0,a2
8ff03634:	24630002 	addiu	v1,v1,2
8ff03638:	24420004 	addiu	v0,v0,4
8ff0363c:	00003812 	mflo	a3
8ff03640:	00004812 	mflo	t1
8ff03644:	afa70018 	sw	a3,24(sp)
8ff03648:	84870000 	lh	a3,0(a0)
8ff0364c:	01272823 	subu	a1,t1,a3
8ff03650:	000548c0 	sll	t1,a1,0x3
8ff03654:	00055140 	sll	t2,a1,0x5
8ff03658:	01494823 	subu	t1,t2,t1
8ff0365c:	01252823 	subu	a1,t1,a1
8ff03660:	00052880 	sll	a1,a1,0x2
8ff03664:	00052a43 	sra	a1,a1,0x9
8ff03668:	00a73821 	addu	a3,a1,a3
8ff0366c:	a4870000 	sh	a3,0(a0)
8ff03670:	8e0408b4 	lw	a0,2228(s0)
8ff03674:	00863021 	addu	a2,a0,a2
8ff03678:	84c50000 	lh	a1,0(a2)
8ff0367c:	144bffe9 	bne	v0,t3,8ff03624 <Ivw235355BEEBC4D4A84148ADDC67987B9A1+0x38>
8ff03680:	a465083e 	sh	a1,2110(v1)
8ff03684:	2609001a 	addiu	t1,s0,26
8ff03688:	02001021 	move	v0,s0
8ff0368c:	8e0709b4 	lw	a3,2484(s0)
8ff03690:	00501823 	subu	v1,v0,s0
8ff03694:	00832821 	addu	a1,a0,v1
8ff03698:	00e33821 	addu	a3,a3,v1
8ff0369c:	84a60000 	lh	a2,0(a1)
8ff036a0:	84e70000 	lh	a3,0(a3)
8ff036a4:	00e6402a 	slt	t0,a3,a2
8ff036a8:	15000007 	bnez	t0,8ff036c8 <Ivw235355BEEBC4D4A84148ADDC67987B9A1+0xdc>
8ff036ac:	00000000 	nop
8ff036b0:	8e0709b8 	lw	a3,2488(s0)
8ff036b4:	00e33821 	addu	a3,a3,v1
8ff036b8:	84e70000 	lh	a3,0(a3)
8ff036bc:	00c7302a 	slt	a2,a2,a3
8ff036c0:	10c00006 	beqz	a2,8ff036dc <Ivw235355BEEBC4D4A84148ADDC67987B9A1+0xf0>
8ff036c4:	00000000 	nop
8ff036c8:	a4a70000 	sh	a3,0(a1)
8ff036cc:	8e0408b4 	lw	a0,2228(s0)
8ff036d0:	00831821 	addu	v1,a0,v1
8ff036d4:	84630000 	lh	v1,0(v1)
8ff036d8:	a4430840 	sh	v1,2112(v0)
8ff036dc:	24420002 	addiu	v0,v0,2
8ff036e0:	1449ffea 	bne	v0,t1,8ff0368c <Ivw235355BEEBC4D4A84148ADDC67987B9A1+0xa0>
8ff036e4:	27a60010 	addiu	a2,sp,16
8ff036e8:	27a70014 	addiu	a3,sp,20
8ff036ec:	0ffc1a50 	jal	8ff06940 <Ivw0873AEAB2019445EA5D4EBE39BE96>
8ff036f0:	2405001a 	li	a1,26
8ff036f4:	8e0208b8 	lw	v0,2232(s0)
8ff036f8:	8fa30010 	lw	v1,16(sp)
8ff036fc:	ac430000 	sw	v1,0(v0)
8ff03700:	8e0209a8 	lw	v0,2472(s0)
8ff03704:	ae0209ac 	sw	v0,2476(s0)
8ff03708:	8fbf0024 	lw	ra,36(sp)
8ff0370c:	8fb00020 	lw	s0,32(sp)
8ff03710:	27bd0028 	addiu	sp,sp,40
8ff03714:	03e00008 	jr	ra
8ff03718:	00000000 	nop

8ff0371c <Ivw2022E43F49DAC4CA0BRB8C778473A7E5E>:
8ff0371c:	27bdffb0 	addiu	sp,sp,-80
8ff03720:	00063400 	sll	a2,a2,0x10
8ff03724:	00063403 	sra	a2,a2,0x10
8ff03728:	afb4003c 	sw	s4,60(sp)
8ff0372c:	3c1438e3 	lui	s4,0x38e3
8ff03730:	36948e39 	ori	s4,s4,0x8e39
8ff03734:	24c60005 	addiu	a2,a2,5
8ff03738:	00d40018 	mult	a2,s4
8ff0373c:	000617c3 	sra	v0,a2,0x1f
8ff03740:	00001810 	mfhi	v1
8ff03744:	afb70048 	sw	s7,72(sp)
8ff03748:	00031843 	sra	v1,v1,0x1
8ff0374c:	0062b823 	subu	s7,v1,v0
8ff03750:	001710c0 	sll	v0,s7,0x3
8ff03754:	00571021 	addu	v0,v0,s7
8ff03758:	00c2b823 	subu	s7,a2,v0
8ff0375c:	afb20034 	sw	s2,52(sp)
8ff03760:	26f2000a 	addiu	s2,s7,10
8ff03764:	02540018 	mult	s2,s4
8ff03768:	afb10030 	sw	s1,48(sp)
8ff0376c:	26f10008 	addiu	s1,s7,8
8ff03770:	00001810 	mfhi	v1
8ff03774:	02340018 	mult	s1,s4
8ff03778:	afb0002c 	sw	s0,44(sp)
8ff0377c:	26f0000b 	addiu	s0,s7,11
8ff03780:	00004810 	mfhi	t1
8ff03784:	02140018 	mult	s0,s4
8ff03788:	26f90007 	addiu	t9,s7,7
8ff0378c:	afb30038 	sw	s3,56(sp)
8ff03790:	00039843 	sra	s3,v1,0x1
8ff03794:	00001810 	mfhi	v1
8ff03798:	03340018 	mult	t9,s4
8ff0379c:	26f80005 	addiu	t8,s7,5
8ff037a0:	26ee0006 	addiu	t6,s7,6
8ff037a4:	00006810 	mfhi	t5
8ff037a8:	001147c3 	sra	t0,s1,0x1f
8ff037ac:	03140018 	mult	t8,s4
8ff037b0:	001017c3 	sra	v0,s0,0x1f
8ff037b4:	afa80000 	sw	t0,0(sp)
8ff037b8:	26ef000d 	addiu	t7,s7,13
8ff037bc:	afa20010 	sw	v0,16(sp)
8ff037c0:	000e17c3 	sra	v0,t6,0x1f
8ff037c4:	afa20004 	sw	v0,4(sp)
8ff037c8:	00005810 	mfhi	t3
8ff037cc:	8fa20000 	lw	v0,0(sp)
8ff037d0:	01f40018 	mult	t7,s4
8ff037d4:	afb60044 	sw	s6,68(sp)
8ff037d8:	afb50040 	sw	s5,64(sp)
8ff037dc:	0009b043 	sra	s6,t1,0x1
8ff037e0:	0012afc3 	sra	s5,s2,0x1f
8ff037e4:	26e6000c 	addiu	a2,s7,12
8ff037e8:	000f47c3 	sra	t0,t7,0x1f
8ff037ec:	02759823 	subu	s3,s3,s5
8ff037f0:	00004810 	mfhi	t1
8ff037f4:	02c2a823 	subu	s5,s6,v0
8ff037f8:	01d40018 	mult	t6,s4
8ff037fc:	8fb60010 	lw	s6,16(sp)
8ff03800:	afa8000c 	sw	t0,12(sp)
8ff03804:	00035043 	sra	t2,v1,0x1
8ff03808:	000647c3 	sra	t0,a2,0x1f
8ff0380c:	afa80008 	sw	t0,8(sp)
8ff03810:	00001810 	mfhi	v1
8ff03814:	01564023 	subu	t0,t2,s6
8ff03818:	00d40018 	mult	a2,s4
8ff0381c:	8faa000c 	lw	t2,12(sp)
8ff03820:	000ba043 	sra	s4,t3,0x1
8ff03824:	00185fc3 	sra	t3,t8,0x1f
8ff03828:	028b5823 	subu	t3,s4,t3
8ff0382c:	00094843 	sra	t1,t1,0x1
8ff03830:	8fb40004 	lw	s4,4(sp)
8ff03834:	012a1023 	subu	v0,t1,t2
8ff03838:	00031843 	sra	v1,v1,0x1
8ff0383c:	001348c0 	sll	t1,s3,0x3
8ff03840:	afa90000 	sw	t1,0(sp)
8ff03844:	001967c3 	sra	t4,t9,0x1f
8ff03848:	00741823 	subu	v1,v1,s4
8ff0384c:	000850c0 	sll	t2,t0,0x3
8ff03850:	000248c0 	sll	t1,v0,0x3
8ff03854:	afbe004c 	sw	s8,76(sp)
8ff03858:	000df043 	sra	s8,t5,0x1
8ff0385c:	00006810 	mfhi	t5
8ff03860:	8fb60008 	lw	s6,8(sp)
8ff03864:	afa9000c 	sw	t1,12(sp)
8ff03868:	03ccf023 	subu	s8,s8,t4
8ff0386c:	8fa90000 	lw	t1,0(sp)
8ff03870:	afaa0004 	sw	t2,4(sp)
8ff03874:	000350c0 	sll	t2,v1,0x3
8ff03878:	afaa0008 	sw	t2,8(sp)
8ff0387c:	001e60c0 	sll	t4,s8,0x3
8ff03880:	000d6843 	sra	t5,t5,0x1
8ff03884:	01b66823 	subu	t5,t5,s6
8ff03888:	019e6021 	addu	t4,t4,s8
8ff0388c:	01339821 	addu	s3,t1,s3
8ff03890:	8fbe0008 	lw	s8,8(sp)
8ff03894:	8fa90004 	lw	t1,4(sp)
8ff03898:	0015b0c0 	sll	s6,s5,0x3
8ff0389c:	000ba0c0 	sll	s4,t3,0x3
8ff038a0:	000d50c0 	sll	t2,t5,0x3
8ff038a4:	02539823 	subu	s3,s2,s3
8ff038a8:	02d5b021 	addu	s6,s6,s5
8ff038ac:	01284021 	addu	t0,t1,t0
8ff038b0:	028b5821 	addu	t3,s4,t3
8ff038b4:	03c31821 	addu	v1,s8,v1
8ff038b8:	8fb4000c 	lw	s4,12(sp)
8ff038bc:	014d6821 	addu	t5,t2,t5
8ff038c0:	0236a823 	subu	s5,s1,s6
8ff038c4:	02084023 	subu	t0,s0,t0
8ff038c8:	01c31823 	subu	v1,t6,v1
8ff038cc:	00cd6823 	subu	t5,a2,t5
8ff038d0:	00134880 	sll	t1,s3,0x2
8ff038d4:	00173080 	sll	a2,s7,0x2
8ff038d8:	0013b100 	sll	s6,s3,0x4
8ff038dc:	032cf023 	subu	s8,t9,t4
8ff038e0:	030b5823 	subu	t3,t8,t3
8ff038e4:	0003c900 	sll	t9,v1,0x4
8ff038e8:	02821021 	addu	v0,s4,v0
8ff038ec:	0003c080 	sll	t8,v1,0x2
8ff038f0:	afa60008 	sw	a2,8(sp)
8ff038f4:	afa9000c 	sw	t1,12(sp)
8ff038f8:	00153080 	sll	a2,s5,0x2
8ff038fc:	00154900 	sll	t1,s5,0x4
8ff03900:	afb60000 	sw	s6,0(sp)
8ff03904:	0008b080 	sll	s6,t0,0x2
8ff03908:	01e21023 	subu	v0,t7,v0
8ff0390c:	afa60010 	sw	a2,16(sp)
8ff03910:	afa90014 	sw	t1,20(sp)
8ff03914:	0338c023 	subu	t8,t9,t8
8ff03918:	afb60018 	sw	s6,24(sp)
8ff0391c:	8fb90008 	lw	t9,8(sp)
8ff03920:	000ba100 	sll	s4,t3,0x4
8ff03924:	00028900 	sll	s1,v0,0x4
8ff03928:	000d7100 	sll	t6,t5,0x4
8ff0392c:	000b9080 	sll	s2,t3,0x2
8ff03930:	00028080 	sll	s0,v0,0x2
8ff03934:	000d6080 	sll	t4,t5,0x2
8ff03938:	00175100 	sll	t2,s7,0x4
8ff0393c:	00083100 	sll	a2,t0,0x4
8ff03940:	02308023 	subu	s0,s1,s0
8ff03944:	01cc6023 	subu	t4,t6,t4
8ff03948:	01595023 	subu	t2,t2,t9
8ff0394c:	8fae0000 	lw	t6,0(sp)
8ff03950:	8fb1000c 	lw	s1,12(sp)
8ff03954:	8fb90010 	lw	t9,16(sp)
8ff03958:	8fb60060 	lw	s6,96(sp)
8ff0395c:	02929023 	subu	s2,s4,s2
8ff03960:	8fb40014 	lw	s4,20(sp)
8ff03964:	afa6001c 	sw	a2,28(sp)
8ff03968:	001e4880 	sll	t1,s8,0x2
8ff0396c:	001630c0 	sll	a2,s6,0x3
8ff03970:	01d1b023 	subu	s6,t6,s1
8ff03974:	02997023 	subu	t6,s4,t9
8ff03978:	8fb1001c 	lw	s1,28(sp)
8ff0397c:	8fb40018 	lw	s4,24(sp)
8ff03980:	afa90020 	sw	t1,32(sp)
8ff03984:	0234c823 	subu	t9,s1,s4
8ff03988:	8fb10020 	lw	s1,32(sp)
8ff0398c:	8c9409c0 	lw	s4,2496(a0)
8ff03990:	001e4900 	sll	t1,s8,0x4
8ff03994:	848f0804 	lh	t7,2052(a0)
8ff03998:	01314823 	subu	t1,t1,s1
8ff0399c:	024b9021 	addu	s2,s2,t3
8ff039a0:	02868821 	addu	s1,s4,a2
8ff039a4:	02021021 	addu	v0,s0,v0
8ff039a8:	0157a021 	addu	s4,t2,s7
8ff039ac:	24170040 	li	s7,64
8ff039b0:	01d55821 	addu	t3,t6,s5
8ff039b4:	03285021 	addu	t2,t9,t0
8ff039b8:	018d6821 	addu	t5,t4,t5
8ff039bc:	02d39821 	addu	s3,s6,s3
8ff039c0:	013e4821 	addu	t1,t1,s8
8ff039c4:	87b60064 	lh	s6,100(sp)
8ff039c8:	03031821 	addu	v1,t8,v1
8ff039cc:	02efb823 	subu	s7,s7,t7
8ff039d0:	00129040 	sll	s2,s2,0x1
8ff039d4:	00021040 	sll	v0,v0,0x1
8ff039d8:	8e2e0004 	lw	t6,4(s1)
8ff039dc:	8fbe0060 	lw	s8,96(sp)
8ff039e0:	00a21021 	addu	v0,a1,v0
8ff039e4:	00031840 	sll	v1,v1,0x1
8ff039e8:	000d6840 	sll	t5,t5,0x1
8ff039ec:	24860400 	addiu	a2,a0,1024
8ff039f0:	00b29021 	addu	s2,a1,s2
8ff039f4:	0014a040 	sll	s4,s4,0x1
8ff039f8:	00136040 	sll	t4,s3,0x1
8ff039fc:	000b5840 	sll	t3,t3,0x1
8ff03a00:	000a5040 	sll	t2,t2,0x1
8ff03a04:	00094840 	sll	t1,t1,0x1
8ff03a08:	0017bc00 	sll	s7,s7,0x10
8ff03a0c:	00a3a821 	addu	s5,a1,v1
8ff03a10:	afb60014 	sw	s6,20(sp)
8ff03a14:	afa7005c 	sw	a3,92(sp)
8ff03a18:	00adb021 	addu	s6,a1,t5
8ff03a1c:	afa20004 	sw	v0,4(sp)
8ff03a20:	00b43821 	addu	a3,a1,s4
8ff03a24:	00ac6021 	addu	t4,a1,t4
8ff03a28:	00ab5821 	addu	t3,a1,t3
8ff03a2c:	00aa5021 	addu	t2,a1,t2
8ff03a30:	00a94821 	addu	t1,a1,t1
8ff03a34:	8fb90068 	lw	t9,104(sp)
8ff03a38:	8e280000 	lw	t0,0(s1)
8ff03a3c:	27d00001 	addiu	s0,s8,1
8ff03a40:	0017bc03 	sra	s7,s7,0x10
8ff03a44:	afb20000 	sw	s2,0(sp)
8ff03a48:	afa40018 	sw	a0,24(sp)
8ff03a4c:	00806821 	move	t5,a0
8ff03a50:	00802821 	move	a1,a0
8ff03a54:	00c01821 	move	v1,a2
8ff03a58:	00001021 	move	v0,zero
8ff03a5c:	afae000c 	sw	t6,12(sp)
8ff03a60:	1000003d 	b	8ff03b58 <Ivw2022E43F49DAC4CA0BRB8C778473A7E5E+0x43c>
8ff03a64:	afa60010 	sw	a2,16(sp)
8ff03a68:	8c9308b4 	lw	s3,2228(a0)
8ff03a6c:	84b40840 	lh	s4,2112(a1)
8ff03a70:	02629821 	addu	s3,s3,v0
8ff03a74:	867e0000 	lh	s8,0(s3)
8ff03a78:	85130000 	lh	s3,0(t0)
8ff03a7c:	01fe0018 	mult	t7,s8
8ff03a80:	24420002 	addiu	v0,v0,2
8ff03a84:	72970000 	madd	s4,s7
8ff03a88:	25ad0004 	addiu	t5,t5,4
8ff03a8c:	0000a012 	mflo	s4
8ff03a90:	0014a183 	sra	s4,s4,0x6
8ff03a94:	00d4a023 	subu	s4,a2,s4
8ff03a98:	72939802 	mul	s3,s4,s3
8ff03a9c:	1330004b 	beq	t9,s0,8ff03bcc <Ivw2022E43F49DAC4CA0BRB8C778473A7E5E+0x4b0>
8ff03aa0:	ac730000 	sw	s3,0(v1)
8ff03aa4:	85260000 	lh	a2,0(t1)
8ff03aa8:	85530000 	lh	s3,0(t2)
8ff03aac:	859e0000 	lh	s8,0(t4)
8ff03ab0:	85740000 	lh	s4,0(t3)
8ff03ab4:	02669823 	subu	s3,s3,a2
8ff03ab8:	03d4a023 	subu	s4,s8,s4
8ff03abc:	8506001a 	lh	a2,26(t0)
8ff03ac0:	00139840 	sll	s3,s3,0x1
8ff03ac4:	0274a021 	addu	s4,s3,s4
8ff03ac8:	70d4a002 	mul	s4,a2,s4
8ff03acc:	24e70002 	addiu	a3,a3,2
8ff03ad0:	ac740034 	sw	s4,52(v1)
8ff03ad4:	86460000 	lh	a2,0(s2)
8ff03ad8:	86340000 	lh	s4,0(s1)
8ff03adc:	87180000 	lh	t8,0(t8)
8ff03ae0:	85d30000 	lh	s3,0(t6)
8ff03ae4:	00d4a021 	addu	s4,a2,s4
8ff03ae8:	85720000 	lh	s2,0(t3)
8ff03aec:	84e6fffe 	lh	a2,-2(a3)
8ff03af0:	0298a021 	addu	s4,s4,t8
8ff03af4:	85910000 	lh	s1,0(t4)
8ff03af8:	85580000 	lh	t8,0(t2)
8ff03afc:	852e0000 	lh	t6,0(t1)
8ff03b00:	02939821 	addu	s3,s4,s3
8ff03b04:	02729023 	subu	s2,s3,s2
8ff03b08:	0006f040 	sll	s8,a2,0x1
8ff03b0c:	000630c0 	sll	a2,a2,0x3
8ff03b10:	02519023 	subu	s2,s2,s1
8ff03b14:	030e7021 	addu	t6,t8,t6
8ff03b18:	03c63021 	addu	a2,s8,a2
8ff03b1c:	85130034 	lh	s3,52(t0)
8ff03b20:	01c63023 	subu	a2,t6,a2
8ff03b24:	00129080 	sll	s2,s2,0x2
8ff03b28:	00d29021 	addu	s2,a2,s2
8ff03b2c:	72729002 	mul	s2,s3,s2
8ff03b30:	2406001a 	li	a2,26
8ff03b34:	ac720068 	sw	s2,104(v1)
8ff03b38:	258c0002 	addiu	t4,t4,2
8ff03b3c:	256b0002 	addiu	t3,t3,2
8ff03b40:	254a0002 	addiu	t2,t2,2
8ff03b44:	25290002 	addiu	t1,t1,2
8ff03b48:	25080002 	addiu	t0,t0,2
8ff03b4c:	24630004 	addiu	v1,v1,4
8ff03b50:	1046002e 	beq	v0,a2,8ff03c0c <Ivw2022E43F49DAC4CA0BRB8C778473A7E5E+0x4f0>
8ff03b54:	24a50002 	addiu	a1,a1,2
8ff03b58:	8fa60000 	lw	a2,0(sp)
8ff03b5c:	8fae0004 	lw	t6,4(sp)
8ff03b60:	00c29021 	addu	s2,a2,v0
8ff03b64:	01c28821 	addu	s1,t6,v0
8ff03b68:	02a2c021 	addu	t8,s5,v0
8ff03b6c:	02c27021 	addu	t6,s6,v0
8ff03b70:	1730ffbd 	bne	t9,s0,8ff03a68 <Ivw2022E43F49DAC4CA0BRB8C778473A7E5E+0x34c>
8ff03b74:	84e60000 	lh	a2,0(a3)
8ff03b78:	8db4080c 	lw	s4,2060(t5)
8ff03b7c:	8db30864 	lw	s3,2148(t5)
8ff03b80:	0286a021 	addu	s4,s4,a2
8ff03b84:	02669821 	addu	s3,s3,a2
8ff03b88:	adb4080c 	sw	s4,2060(t5)
8ff03b8c:	adb30864 	sw	s3,2148(t5)
8ff03b90:	8c9308b4 	lw	s3,2228(a0)
8ff03b94:	84b40840 	lh	s4,2112(a1)
8ff03b98:	02629821 	addu	s3,s3,v0
8ff03b9c:	867e0000 	lh	s8,0(s3)
8ff03ba0:	85130000 	lh	s3,0(t0)
8ff03ba4:	01fe0018 	mult	t7,s8
8ff03ba8:	24420002 	addiu	v0,v0,2
8ff03bac:	72970000 	madd	s4,s7
8ff03bb0:	25ad0004 	addiu	t5,t5,4
8ff03bb4:	0000a012 	mflo	s4
8ff03bb8:	0014a183 	sra	s4,s4,0x6
8ff03bbc:	00d4a023 	subu	s4,a2,s4
8ff03bc0:	72939802 	mul	s3,s4,s3
8ff03bc4:	1730ffb7 	bne	t9,s0,8ff03aa4 <Ivw2022E43F49DAC4CA0BRB8C778473A7E5E+0x388>
8ff03bc8:	ac730000 	sw	s3,0(v1)
8ff03bcc:	84b40840 	lh	s4,2112(a1)
8ff03bd0:	84930806 	lh	s3,2054(a0)
8ff03bd4:	00d43023 	subu	a2,a2,s4
8ff03bd8:	72663002 	mul	a2,s3,a2
8ff03bdc:	84b30898 	lh	s3,2200(a1)
8ff03be0:	000633c3 	sra	a2,a2,0xf
8ff03be4:	00d4a021 	addu	s4,a2,s4
8ff03be8:	a4b40840 	sh	s4,2112(a1)
8ff03bec:	84e60000 	lh	a2,0(a3)
8ff03bf0:	8494085c 	lh	s4,2140(a0)
8ff03bf4:	00d33023 	subu	a2,a2,s3
8ff03bf8:	72863002 	mul	a2,s4,a2
8ff03bfc:	000633c3 	sra	a2,a2,0xf
8ff03c00:	00d33021 	addu	a2,a2,s3
8ff03c04:	1000ffa7 	b	8ff03aa4 <Ivw2022E43F49DAC4CA0BRB8C778473A7E5E+0x388>
8ff03c08:	a4a60898 	sh	a2,2200(a1)
8ff03c0c:	8fae000c 	lw	t6,12(sp)
8ff03c10:	8fa60010 	lw	a2,16(sp)
8ff03c14:	8fa3005c 	lw	v1,92(sp)
8ff03c18:	00001021 	move	v0,zero
8ff03c1c:	240bffe0 	li	t3,-32
8ff03c20:	240dfc00 	li	t5,-1024
8ff03c24:	240c03e0 	li	t4,992
8ff03c28:	10000008 	b	8ff03c4c <Ivw2022E43F49DAC4CA0BRB8C778473A7E5E+0x530>
8ff03c2c:	240a004e 	li	t2,78
8ff03c30:	a46c0000 	sh	t4,0(v1)
8ff03c34:	2407fbe0 	li	a3,-1056
8ff03c38:	24420002 	addiu	v0,v0,2
8ff03c3c:	a4670000 	sh	a3,0(v1)
8ff03c40:	24c60004 	addiu	a2,a2,4
8ff03c44:	104a0014 	beq	v0,t2,8ff03c98 <Ivw2022E43F49DAC4CA0BRB8C778473A7E5E+0x57c>
8ff03c48:	24630002 	addiu	v1,v1,2
8ff03c4c:	01c22821 	addu	a1,t6,v0
8ff03c50:	84a70000 	lh	a3,0(a1)
8ff03c54:	8cc50000 	lw	a1,0(a2)
8ff03c58:	24e7fffb 	addiu	a3,a3,-5
8ff03c5c:	00e53807 	srav	a3,a1,a3
8ff03c60:	00eb3824 	and	a3,a3,t3
8ff03c64:	00072c00 	sll	a1,a3,0x10
8ff03c68:	00052c03 	sra	a1,a1,0x10
8ff03c6c:	28a803e1 	slti	t0,a1,993
8ff03c70:	1100ffef 	beqz	t0,8ff03c30 <Ivw2022E43F49DAC4CA0BRB8C778473A7E5E+0x514>
8ff03c74:	28a9fc00 	slti	t1,a1,-1024
8ff03c78:	15200014 	bnez	t1,8ff03ccc <Ivw2022E43F49DAC4CA0BRB8C778473A7E5E+0x5b0>
8ff03c7c:	24e7f800 	addiu	a3,a3,-2048
8ff03c80:	24420002 	addiu	v0,v0,2
8ff03c84:	a4650000 	sh	a1,0(v1)
8ff03c88:	24c60004 	addiu	a2,a2,4
8ff03c8c:	a4670000 	sh	a3,0(v1)
8ff03c90:	144affee 	bne	v0,t2,8ff03c4c <Ivw2022E43F49DAC4CA0BRB8C778473A7E5E+0x530>
8ff03c94:	24630002 	addiu	v1,v1,2
8ff03c98:	1330000f 	beq	t9,s0,8ff03cd8 <Ivw2022E43F49DAC4CA0BRB8C778473A7E5E+0x5bc>
8ff03c9c:	00000000 	nop
8ff03ca0:	8fbe004c 	lw	s8,76(sp)
8ff03ca4:	8fb70048 	lw	s7,72(sp)
8ff03ca8:	8fb60044 	lw	s6,68(sp)
8ff03cac:	8fb50040 	lw	s5,64(sp)
8ff03cb0:	8fb4003c 	lw	s4,60(sp)
8ff03cb4:	8fb30038 	lw	s3,56(sp)
8ff03cb8:	8fb20034 	lw	s2,52(sp)
8ff03cbc:	8fb10030 	lw	s1,48(sp)
8ff03cc0:	8fb0002c 	lw	s0,44(sp)
8ff03cc4:	03e00008 	jr	ra
8ff03cc8:	27bd0050 	addiu	sp,sp,80
8ff03ccc:	a46d0000 	sh	t5,0(v1)
8ff03cd0:	1000ffd9 	b	8ff03c38 <Ivw2022E43F49DAC4CA0BRB8C778473A7E5E+0x51c>
8ff03cd4:	2407f400 	li	a3,-3072
8ff03cd8:	94830804 	lhu	v1,2052(a0)
8ff03cdc:	84820806 	lh	v0,2054(a0)
8ff03ce0:	2463ffff 	addiu	v1,v1,-1
8ff03ce4:	284500ab 	slti	a1,v0,171
8ff03ce8:	10a0004b 	beqz	a1,8ff03e18 <Ivw2022E43F49DAC4CA0BRB8C778473A7E5E+0x6fc>
8ff03cec:	a4830804 	sh	v1,2052(a0)
8ff03cf0:	00031400 	sll	v0,v1,0x10
8ff03cf4:	00021403 	sra	v0,v0,0x10
8ff03cf8:	04400050 	bltz	v0,8ff03e3c <Ivw2022E43F49DAC4CA0BRB8C778473A7E5E+0x720>
8ff03cfc:	00000000 	nop
8ff03d00:	9485085a 	lhu	a1,2138(a0)
8ff03d04:	8c870808 	lw	a3,2056(a0)
8ff03d08:	8482085c 	lh	v0,2140(a0)
8ff03d0c:	24a5ffff 	addiu	a1,a1,-1
8ff03d10:	24e70001 	addiu	a3,a3,1
8ff03d14:	284600ab 	slti	a2,v0,171
8ff03d18:	a4830804 	sh	v1,2052(a0)
8ff03d1c:	ac870808 	sw	a3,2056(a0)
8ff03d20:	10c00034 	beqz	a2,8ff03df4 <Ivw2022E43F49DAC4CA0BRB8C778473A7E5E+0x6d8>
8ff03d24:	a485085a 	sh	a1,2138(a0)
8ff03d28:	00a01021 	move	v0,a1
8ff03d2c:	00024c00 	sll	t1,v0,0x10
8ff03d30:	00094c03 	sra	t1,t1,0x10
8ff03d34:	05200043 	bltz	t1,8ff03e44 <Ivw2022E43F49DAC4CA0BRB8C778473A7E5E+0x728>
8ff03d38:	00000000 	nop
8ff03d3c:	8c880860 	lw	t0,2144(a0)
8ff03d40:	a482085a 	sh	v0,2138(a0)
8ff03d44:	25080001 	addiu	t0,t0,1
8ff03d48:	2d020046 	sltiu	v0,t0,70
8ff03d4c:	1440ffd4 	bnez	v0,8ff03ca0 <Ivw2022E43F49DAC4CA0BRB8C778473A7E5E+0x584>
8ff03d50:	ac880860 	sw	t0,2144(a0)
8ff03d54:	8faa0014 	lw	t2,20(sp)
8ff03d58:	2402ffff 	li	v0,-1
8ff03d5c:	1542ffd1 	bne	t2,v0,8ff03ca4 <Ivw2022E43F49DAC4CA0BRB8C778473A7E5E+0x588>
8ff03d60:	8fbe004c 	lw	s8,76(sp)
8ff03d64:	00801821 	move	v1,a0
8ff03d68:	00801021 	move	v0,a0
8ff03d6c:	00002821 	move	a1,zero
8ff03d70:	2407000d 	li	a3,13
8ff03d74:	94460898 	lhu	a2,2200(v0)
8ff03d78:	24a50001 	addiu	a1,a1,1
8ff03d7c:	a4460840 	sh	a2,2112(v0)
8ff03d80:	8c660864 	lw	a2,2148(v1)
8ff03d84:	00052c00 	sll	a1,a1,0x10
8ff03d88:	00052c03 	sra	a1,a1,0x10
8ff03d8c:	ac66080c 	sw	a2,2060(v1)
8ff03d90:	24420002 	addiu	v0,v0,2
8ff03d94:	14a7fff7 	bne	a1,a3,8ff03d74 <Ivw2022E43F49DAC4CA0BRB8C778473A7E5E+0x658>
8ff03d98:	24630004 	addiu	v1,v1,4
8ff03d9c:	9482085c 	lhu	v0,2140(a0)
8ff03da0:	8c8708b4 	lw	a3,2228(a0)
8ff03da4:	8fa30018 	lw	v1,24(sp)
8ff03da8:	a4820806 	sh	v0,2054(a0)
8ff03dac:	ac880808 	sw	t0,2056(a0)
8ff03db0:	a4890804 	sh	t1,2052(a0)
8ff03db4:	00001021 	move	v0,zero
8ff03db8:	2406001a 	li	a2,26
8ff03dbc:	ac600864 	sw	zero,2148(v1)
8ff03dc0:	00e22821 	addu	a1,a3,v0
8ff03dc4:	84a80000 	lh	t0,0(a1)
8ff03dc8:	00822821 	addu	a1,a0,v0
8ff03dcc:	24420002 	addiu	v0,v0,2
8ff03dd0:	a4a80898 	sh	t0,2200(a1)
8ff03dd4:	1446fff9 	bne	v0,a2,8ff03dbc <Ivw2022E43F49DAC4CA0BRB8C778473A7E5E+0x6a0>
8ff03dd8:	24630004 	addiu	v1,v1,4
8ff03ddc:	24020038 	li	v0,56
8ff03de0:	a482085a 	sh	v0,2138(a0)
8ff03de4:	24020400 	li	v0,1024
8ff03de8:	ac800860 	sw	zero,2144(a0)
8ff03dec:	1000ffac 	b	8ff03ca0 <Ivw2022E43F49DAC4CA0BRB8C778473A7E5E+0x584>
8ff03df0:	a482085c 	sh	v0,2140(a0)
8ff03df4:	00023100 	sll	a2,v0,0x4
8ff03df8:	00021980 	sll	v1,v0,0x6
8ff03dfc:	00c31821 	addu	v1,a2,v1
8ff03e00:	00033100 	sll	a2,v1,0x4
8ff03e04:	00c31823 	subu	v1,a2,v1
8ff03e08:	00031bc3 	sra	v1,v1,0xf
8ff03e0c:	00431023 	subu	v0,v0,v1
8ff03e10:	1000ffc5 	b	8ff03d28 <Ivw2022E43F49DAC4CA0BRB8C778473A7E5E+0x60c>
8ff03e14:	a482085c 	sh	v0,2140(a0)
8ff03e18:	00023100 	sll	a2,v0,0x4
8ff03e1c:	00022980 	sll	a1,v0,0x6
8ff03e20:	00c52821 	addu	a1,a2,a1
8ff03e24:	00053100 	sll	a2,a1,0x4
8ff03e28:	00c52823 	subu	a1,a2,a1
8ff03e2c:	00052bc3 	sra	a1,a1,0xf
8ff03e30:	00451023 	subu	v0,v0,a1
8ff03e34:	1000ffae 	b	8ff03cf0 <Ivw2022E43F49DAC4CA0BRB8C778473A7E5E+0x5d4>
8ff03e38:	a4820806 	sh	v0,2054(a0)
8ff03e3c:	1000ffb0 	b	8ff03d00 <Ivw2022E43F49DAC4CA0BRB8C778473A7E5E+0x5e4>
8ff03e40:	00001821 	move	v1,zero
8ff03e44:	00001021 	move	v0,zero
8ff03e48:	1000ffbc 	b	8ff03d3c <Ivw2022E43F49DAC4CA0BRB8C778473A7E5E+0x620>
8ff03e4c:	00004821 	move	t1,zero

8ff03e50 <Ivw2837A62AC32B84B58FDAF33ACA28B682D>:
8ff03e50:	10800018 	beqz	a0,8ff03eb4 <Ivw2837A62AC32B84B58FDAF33ACA28B682D+0x64>
8ff03e54:	30c6ffff 	andi	a2,a2,0xffff
8ff03e58:	10a00018 	beqz	a1,8ff03ebc <Ivw2837A62AC32B84B58FDAF33ACA28B682D+0x6c>
8ff03e5c:	00000000 	nop
8ff03e60:	24c2ffff 	addiu	v0,a2,-1
8ff03e64:	2c42006f 	sltiu	v0,v0,111
8ff03e68:	10400012 	beqz	v0,8ff03eb4 <Ivw2837A62AC32B84B58FDAF33ACA28B682D+0x64>
8ff03e6c:	24030001 	li	v1,1
8ff03e70:	948209bc 	lhu	v0,2492(a0)
8ff03e74:	10c30026 	beq	a2,v1,8ff03f10 <Ivw2837A62AC32B84B58FDAF33ACA28B682D+0xc0>
8ff03e78:	948909be 	lhu	t1,2494(a0)
8ff03e7c:	01221023 	subu	v0,t1,v0
8ff03e80:	3043ffff 	andi	v1,v0,0xffff
8ff03e84:	00031400 	sll	v0,v1,0x10
8ff03e88:	00021403 	sra	v0,v0,0x10
8ff03e8c:	0440002a 	bltz	v0,8ff03f38 <Ivw2837A62AC32B84B58FDAF33ACA28B682D+0xe8>
8ff03e90:	00000000 	nop
8ff03e94:	00c21021 	addu	v0,a2,v0
8ff03e98:	00021400 	sll	v0,v0,0x10
8ff03e9c:	00021403 	sra	v0,v0,0x10
8ff03ea0:	28420200 	slti	v0,v0,512
8ff03ea4:	14400007 	bnez	v0,8ff03ec4 <Ivw2837A62AC32B84B58FDAF33ACA28B682D+0x74>
8ff03ea8:	00000000 	nop
8ff03eac:	03e00008 	jr	ra
8ff03eb0:	24020005 	li	v0,5
8ff03eb4:	03e00008 	jr	ra
8ff03eb8:	24020001 	li	v0,1
8ff03ebc:	03e00008 	jr	ra
8ff03ec0:	24020002 	li	v0,2
8ff03ec4:	00001021 	move	v0,zero
8ff03ec8:	00021840 	sll	v1,v0,0x1
8ff03ecc:	01223821 	addu	a3,t1,v0
8ff03ed0:	24420001 	addiu	v0,v0,1
8ff03ed4:	00a31821 	addu	v1,a1,v1
8ff03ed8:	30e701ff 	andi	a3,a3,0x1ff
8ff03edc:	00021400 	sll	v0,v0,0x10
8ff03ee0:	84680000 	lh	t0,0(v1)
8ff03ee4:	00073840 	sll	a3,a3,0x1
8ff03ee8:	00021403 	sra	v0,v0,0x10
8ff03eec:	00873821 	addu	a3,a0,a3
8ff03ef0:	0046182a 	slt	v1,v0,a2
8ff03ef4:	1460fff4 	bnez	v1,8ff03ec8 <Ivw2837A62AC32B84B58FDAF33ACA28B682D+0x78>
8ff03ef8:	a4e80000 	sh	t0,0(a3)
8ff03efc:	00c93021 	addu	a2,a2,t1
8ff03f00:	30c601ff 	andi	a2,a2,0x1ff
8ff03f04:	a48609be 	sh	a2,2494(a0)
8ff03f08:	03e00008 	jr	ra
8ff03f0c:	00001021 	move	v0,zero
8ff03f10:	25230001 	addiu	v1,t1,1
8ff03f14:	306301ff 	andi	v1,v1,0x1ff
8ff03f18:	1062ffe4 	beq	v1,v0,8ff03eac <Ivw2837A62AC32B84B58FDAF33ACA28B682D+0x5c>
8ff03f1c:	00094840 	sll	t1,t1,0x1
8ff03f20:	84a20000 	lh	v0,0(a1)
8ff03f24:	00894821 	addu	t1,a0,t1
8ff03f28:	a5220000 	sh	v0,0(t1)
8ff03f2c:	00001021 	move	v0,zero
8ff03f30:	03e00008 	jr	ra
8ff03f34:	a48309be 	sh	v1,2494(a0)
8ff03f38:	24620200 	addiu	v0,v1,512
8ff03f3c:	00021400 	sll	v0,v0,0x10
8ff03f40:	1000ffd4 	b	8ff03e94 <Ivw2837A62AC32B84B58FDAF33ACA28B682D+0x44>
8ff03f44:	00021403 	sra	v0,v0,0x10

8ff03f48 <IvwB3380E2D10DD4CF09C6BFF24D6237>:
8ff03f48:	8c8309a8 	lw	v1,2472(a0)
8ff03f4c:	8c8209ac 	lw	v0,2476(a0)
8ff03f50:	00052c00 	sll	a1,a1,0x10
8ff03f54:	00621023 	subu	v0,v1,v0
8ff03f58:	28420401 	slti	v0,v0,1025
8ff03f5c:	14400004 	bnez	v0,8ff03f70 <IvwB3380E2D10DD4CF09C6BFF24D6237+0x28>
8ff03f60:	00052c03 	sra	a1,a1,0x10
8ff03f64:	2402ffff 	li	v0,-1
8ff03f68:	10a20003 	beq	a1,v0,8ff03f78 <IvwB3380E2D10DD4CF09C6BFF24D6237+0x30>
8ff03f6c:	00000000 	nop
8ff03f70:	03e00008 	jr	ra
8ff03f74:	00000000 	nop
8ff03f78:	27bdffe8 	addiu	sp,sp,-24
8ff03f7c:	afb00010 	sw	s0,16(sp)
8ff03f80:	afbf0014 	sw	ra,20(sp)
8ff03f84:	0ffc0d2c 	jal	8ff034b0 <Ivw6D2E95BD768E495BA5730EC448141>
8ff03f88:	00808021 	move	s0,a0
8ff03f8c:	8e0409b0 	lw	a0,2480(s0)
8ff03f90:	2607001a 	addiu	a3,s0,26
8ff03f94:	02001021 	move	v0,s0
8ff03f98:	00501823 	subu	v1,v0,s0
8ff03f9c:	8e0608b4 	lw	a2,2228(s0)
8ff03fa0:	00832021 	addu	a0,a0,v1
8ff03fa4:	84850000 	lh	a1,0(a0)
8ff03fa8:	00c32021 	addu	a0,a2,v1
8ff03fac:	a4850000 	sh	a1,0(a0)
8ff03fb0:	8e0409b0 	lw	a0,2480(s0)
8ff03fb4:	24420002 	addiu	v0,v0,2
8ff03fb8:	00831821 	addu	v1,a0,v1
8ff03fbc:	84650000 	lh	a1,0(v1)
8ff03fc0:	a445083e 	sh	a1,2110(v0)
8ff03fc4:	84630000 	lh	v1,0(v1)
8ff03fc8:	1447fff3 	bne	v0,a3,8ff03f98 <IvwB3380E2D10DD4CF09C6BFF24D6237+0x50>
8ff03fcc:	a4430896 	sh	v1,2198(v0)
8ff03fd0:	8e0209a8 	lw	v0,2472(s0)
8ff03fd4:	ae0209ac 	sw	v0,2476(s0)
8ff03fd8:	8fbf0014 	lw	ra,20(sp)
8ff03fdc:	8fb00010 	lw	s0,16(sp)
8ff03fe0:	03e00008 	jr	ra
8ff03fe4:	27bd0018 	addiu	sp,sp,24

8ff03fe8 <Ivw2022E41F49DAC4CF0BCC85778473A7E5F>:
8ff03fe8:	10800078 	beqz	a0,8ff041cc <Ivw2022E41F49DAC4CF0BCC85778473A7E5F+0x1e4>
8ff03fec:	00000000 	nop
8ff03ff0:	27bdffc0 	addiu	sp,sp,-64
8ff03ff4:	afb40034 	sw	s4,52(sp)
8ff03ff8:	afb2002c 	sw	s2,44(sp)
8ff03ffc:	afb00024 	sw	s0,36(sp)
8ff04000:	afbf003c 	sw	ra,60(sp)
8ff04004:	afb50038 	sw	s5,56(sp)
8ff04008:	afb30030 	sw	s3,48(sp)
8ff0400c:	afb10028 	sw	s1,40(sp)
8ff04010:	00808021 	move	s0,a0
8ff04014:	00c09021 	move	s2,a2
8ff04018:	10a0008a 	beqz	a1,8ff04244 <Ivw2022E41F49DAC4CF0BCC85778473A7E5F+0x25c>
8ff0401c:	00e0a021 	move	s4,a3
8ff04020:	10c00012 	beqz	a2,8ff0406c <Ivw2022E41F49DAC4CF0BCC85778473A7E5F+0x84>
8ff04024:	00003821 	move	a3,zero
8ff04028:	8e420000 	lw	v0,0(s2)
8ff0402c:	3c0451eb 	lui	a0,0x51eb
8ff04030:	24420001 	addiu	v0,v0,1
8ff04034:	3484851f 	ori	a0,a0,0x851f
8ff04038:	00440019 	multu	v0,a0
8ff0403c:	00002010 	mfhi	a0
8ff04040:	000421c2 	srl	a0,a0,0x7
8ff04044:	00041900 	sll	v1,a0,0x4
8ff04048:	00042180 	sll	a0,a0,0x6
8ff0404c:	00641821 	addu	v1,v1,a0
8ff04050:	00033880 	sll	a3,v1,0x2
8ff04054:	00673821 	addu	a3,v1,a3
8ff04058:	00473823 	subu	a3,v0,a3
8ff0405c:	24e70270 	addiu	a3,a3,624
8ff04060:	00073880 	sll	a3,a3,0x2
8ff04064:	02073821 	addu	a3,s0,a3
8ff04068:	24e70004 	addiu	a3,a3,4
8ff0406c:	960209bc 	lhu	v0,2492(s0)
8ff04070:	960309be 	lhu	v1,2494(s0)
8ff04074:	00621823 	subu	v1,v1,v0
8ff04078:	3063ffff 	andi	v1,v1,0xffff
8ff0407c:	00031400 	sll	v0,v1,0x10
8ff04080:	00021403 	sra	v0,v0,0x10
8ff04084:	0440006b 	bltz	v0,8ff04234 <Ivw2022E41F49DAC4CF0BCC85778473A7E5F+0x24c>
8ff04088:	00000000 	nop
8ff0408c:	28420190 	slti	v0,v0,400
8ff04090:	1040000b 	beqz	v0,8ff040c0 <Ivw2022E41F49DAC4CF0BCC85778473A7E5F+0xd8>
8ff04094:	02002021 	move	a0,s0
8ff04098:	24020006 	li	v0,6
8ff0409c:	8fbf003c 	lw	ra,60(sp)
8ff040a0:	8fb50038 	lw	s5,56(sp)
8ff040a4:	8fb40034 	lw	s4,52(sp)
8ff040a8:	8fb30030 	lw	s3,48(sp)
8ff040ac:	8fb2002c 	lw	s2,44(sp)
8ff040b0:	8fb10028 	lw	s1,40(sp)
8ff040b4:	8fb00024 	lw	s0,36(sp)
8ff040b8:	03e00008 	jr	ra
8ff040bc:	27bd0040 	addiu	sp,sp,64
8ff040c0:	960209a6 	lhu	v0,2470(s0)
8ff040c4:	00021880 	sll	v1,v0,0x2
8ff040c8:	00022900 	sll	a1,v0,0x4
8ff040cc:	00a32823 	subu	a1,a1,v1
8ff040d0:	00a22821 	addu	a1,a1,v0
8ff040d4:	00052840 	sll	a1,a1,0x1
8ff040d8:	02052821 	addu	a1,s0,a1
8ff040dc:	24a508bc 	addiu	a1,a1,2236
8ff040e0:	0ffc1ba2 	jal	8ff06e88 <Ivw22E87D039917F40EF0FA2C2447EEA46CC>
8ff040e4:	00003021 	move	a2,zero
8ff040e8:	8e0209a8 	lw	v0,2472(s0)
8ff040ec:	10400039 	beqz	v0,8ff041d4 <Ivw2022E41F49DAC4CF0BCC85778473A7E5F+0x1ec>
8ff040f0:	00002021 	move	a0,zero
8ff040f4:	1a800057 	blez	s4,8ff04254 <Ivw2022E41F49DAC4CF0BCC85778473A7E5F+0x26c>
8ff040f8:	00141200 	sll	v0,s4,0x8
8ff040fc:	00141880 	sll	v1,s4,0x2
8ff04100:	00622821 	addu	a1,v1,v0
8ff04104:	02452821 	addu	a1,s2,a1
8ff04108:	02401021 	move	v0,s2
8ff0410c:	2413ffff 	li	s3,-1
8ff04110:	8443003c 	lh	v1,60(v0)
8ff04114:	24420104 	addiu	v0,v0,260
8ff04118:	28640000 	slti	a0,v1,0
8ff0411c:	1445fffc 	bne	v0,a1,8ff04110 <Ivw2022E41F49DAC4CF0BCC85778473A7E5F+0x128>
8ff04120:	0064980a 	movz	s3,v1,a0
8ff04124:	02002021 	move	a0,s0
8ff04128:	0ffc0fd2 	jal	8ff03f48 <IvwB3380E2D10DD4CF09C6BFF24D6237>
8ff0412c:	02602821 	move	a1,s3
8ff04130:	00008821 	move	s1,zero
8ff04134:	261508bc 	addiu	s5,s0,2236
8ff04138:	860609a6 	lh	a2,2470(s0)
8ff0413c:	26470090 	addiu	a3,s2,144
8ff04140:	afb10010 	sw	s1,16(sp)
8ff04144:	afb30014 	sw	s3,20(sp)
8ff04148:	afb40018 	sw	s4,24(sp)
8ff0414c:	02002021 	move	a0,s0
8ff04150:	02a02821 	move	a1,s5
8ff04154:	0ffc0dc7 	jal	8ff0371c <Ivw2022E43F49DAC4CA0BRB8C778473A7E5E>
8ff04158:	26310001 	addiu	s1,s1,1
8ff0415c:	1634fff6 	bne	s1,s4,8ff04138 <Ivw2022E41F49DAC4CF0BCC85778473A7E5F+0x150>
8ff04160:	26520104 	addiu	s2,s2,260
8ff04164:	960409a6 	lhu	a0,2470(s0)
8ff04168:	3c0238e3 	lui	v0,0x38e3
8ff0416c:	24840001 	addiu	a0,a0,1
8ff04170:	34428e39 	ori	v0,v0,0x8e39
8ff04174:	00820018 	mult	a0,v0
8ff04178:	8e0609a8 	lw	a2,2472(s0)
8ff0417c:	00001810 	mfhi	v1
8ff04180:	00031043 	sra	v0,v1,0x1
8ff04184:	000228c0 	sll	a1,v0,0x3
8ff04188:	00a21021 	addu	v0,a1,v0
8ff0418c:	24c30001 	addiu	v1,a2,1
8ff04190:	00822023 	subu	a0,a0,v0
8ff04194:	a60409a6 	sh	a0,2470(s0)
8ff04198:	ae0309a8 	sw	v1,2472(s0)
8ff0419c:	8fbf003c 	lw	ra,60(sp)
8ff041a0:	28650003 	slti	a1,v1,3
8ff041a4:	24020006 	li	v0,6
8ff041a8:	8fb50038 	lw	s5,56(sp)
8ff041ac:	8fb40034 	lw	s4,52(sp)
8ff041b0:	8fb30030 	lw	s3,48(sp)
8ff041b4:	8fb2002c 	lw	s2,44(sp)
8ff041b8:	8fb10028 	lw	s1,40(sp)
8ff041bc:	8fb00024 	lw	s0,36(sp)
8ff041c0:	0005100a 	movz	v0,zero,a1
8ff041c4:	03e00008 	jr	ra
8ff041c8:	27bd0040 	addiu	sp,sp,64
8ff041cc:	03e00008 	jr	ra
8ff041d0:	24020002 	li	v0,2
8ff041d4:	960209a6 	lhu	v0,2470(s0)
8ff041d8:	00021880 	sll	v1,v0,0x2
8ff041dc:	00024100 	sll	t0,v0,0x4
8ff041e0:	01034023 	subu	t0,t0,v1
8ff041e4:	01024021 	addu	t0,t0,v0
8ff041e8:	00084040 	sll	t0,t0,0x1
8ff041ec:	02084821 	addu	t1,s0,t0
8ff041f0:	250708b8 	addiu	a3,t0,2232
8ff041f4:	252908d6 	addiu	t1,t1,2262
8ff041f8:	00084023 	negu	t0,t0
8ff041fc:	02073821 	addu	a3,s0,a3
8ff04200:	240600ea 	li	a2,234
8ff04204:	24e20004 	addiu	v0,a3,4
8ff04208:	84450000 	lh	a1,0(v0)
8ff0420c:	00481821 	addu	v1,v0,t0
8ff04210:	00641821 	addu	v1,v1,a0
8ff04214:	24420002 	addiu	v0,v0,2
8ff04218:	1449fffb 	bne	v0,t1,8ff04208 <Ivw2022E41F49DAC4CF0BCC85778473A7E5F+0x220>
8ff0421c:	a4650000 	sh	a1,0(v1)
8ff04220:	2484001a 	addiu	a0,a0,26
8ff04224:	1486fff7 	bne	a0,a2,8ff04204 <Ivw2022E41F49DAC4CF0BCC85778473A7E5F+0x21c>
8ff04228:	00000000 	nop
8ff0422c:	1000ffb1 	b	8ff040f4 <Ivw2022E41F49DAC4CF0BCC85778473A7E5F+0x10c>
8ff04230:	00000000 	nop
8ff04234:	24620200 	addiu	v0,v1,512
8ff04238:	00021400 	sll	v0,v0,0x10
8ff0423c:	1000ff93 	b	8ff0408c <Ivw2022E41F49DAC4CF0BCC85778473A7E5F+0xa4>
8ff04240:	00021403 	sra	v0,v0,0x10
8ff04244:	14c0ff78 	bnez	a2,8ff04028 <Ivw2022E41F49DAC4CF0BCC85778473A7E5F+0x40>
8ff04248:	24020002 	li	v0,2
8ff0424c:	1000ff94 	b	8ff040a0 <Ivw2022E41F49DAC4CF0BCC85778473A7E5F+0xb8>
8ff04250:	8fbf003c 	lw	ra,60(sp)
8ff04254:	02002021 	move	a0,s0
8ff04258:	0ffc0fd2 	jal	8ff03f48 <IvwB3380E2D10DD4CF09C6BFF24D6237>
8ff0425c:	2405ffff 	li	a1,-1
8ff04260:	1000ffc1 	b	8ff04168 <Ivw2022E41F49DAC4CF0BCC85778473A7E5F+0x180>
8ff04264:	960409a6 	lhu	a0,2470(s0)
	...

8ff04270 <ivwDecodeInitScore>:
8ff04270:	27bdffd8 	addiu	sp,sp,-40
8ff04274:	afb40020 	sw	s4,32(sp)
8ff04278:	afb3001c 	sw	s3,28(sp)
8ff0427c:	afb10014 	sw	s1,20(sp)
8ff04280:	afb00010 	sw	s0,16(sp)
8ff04284:	afbf0024 	sw	ra,36(sp)
8ff04288:	afb20018 	sw	s2,24(sp)
8ff0428c:	94880024 	lhu	t0,36(a0)
8ff04290:	00808021 	move	s0,a0
8ff04294:	00a08821 	move	s1,a1
8ff04298:	00c0a021 	move	s4,a2
8ff0429c:	11000092 	beqz	t0,8ff044e8 <ivwDecodeInitScore+0x278>
8ff042a0:	00e09821 	move	s3,a3
8ff042a4:	2502ffff 	addiu	v0,t0,-1
8ff042a8:	3042ffff 	andi	v0,v0,0xffff
8ff042ac:	8c840010 	lw	a0,16(a0)
8ff042b0:	00021880 	sll	v1,v0,0x2
8ff042b4:	00023100 	sll	a2,v0,0x4
8ff042b8:	00c33023 	subu	a2,a2,v1
8ff042bc:	2482000c 	addiu	v0,a0,12
8ff042c0:	00463021 	addu	a2,v0,a2
8ff042c4:	10000002 	b	8ff042d0 <ivwDecodeInitScore+0x60>
8ff042c8:	00001821 	move	v1,zero
8ff042cc:	2442000c 	addiu	v0,v0,12
8ff042d0:	8c850000 	lw	a1,0(a0)
8ff042d4:	00402021 	move	a0,v0
8ff042d8:	1446fffc 	bne	v0,a2,8ff042cc <ivwDecodeInitScore+0x5c>
8ff042dc:	00651821 	addu	v1,v1,a1
8ff042e0:	00031080 	sll	v0,v1,0x2
8ff042e4:	00431821 	addu	v1,v0,v1
8ff042e8:	00683021 	addu	a2,v1,t0
8ff042ec:	26921010 	addiu	s2,s4,4112
8ff042f0:	8e85100c 	lw	a1,4108(s4)
8ff042f4:	02402021 	move	a0,s2
8ff042f8:	0ffc0cbf 	jal	8ff032fc <Ivw2681C72D235E04AAB07BE4B52CFC2455C>
8ff042fc:	00063080 	sll	a2,a2,0x2
8ff04300:	1040006c 	beqz	v0,8ff044b4 <ivwDecodeInitScore+0x244>
8ff04304:	ae620008 	sw	v0,8(s3)
8ff04308:	96030024 	lhu	v1,36(s0)
8ff0430c:	00034080 	sll	t0,v1,0x2
8ff04310:	10600015 	beqz	v1,8ff04368 <ivwDecodeInitScore+0xf8>
8ff04314:	00484021 	addu	t0,v0,t0
8ff04318:	10000002 	b	8ff04324 <ivwDecodeInitScore+0xb4>
8ff0431c:	00001821 	move	v1,zero
8ff04320:	8e620008 	lw	v0,8(s3)
8ff04324:	00034880 	sll	t1,v1,0x2
8ff04328:	00491021 	addu	v0,v0,t1
8ff0432c:	ac480000 	sw	t0,0(v0)
8ff04330:	00032100 	sll	a0,v1,0x4
8ff04334:	8e020010 	lw	v0,16(s0)
8ff04338:	00894823 	subu	t1,a0,t1
8ff0433c:	00494821 	addu	t1,v0,t1
8ff04340:	8d220000 	lw	v0,0(t1)
8ff04344:	24630001 	addiu	v1,v1,1
8ff04348:	96040024 	lhu	a0,36(s0)
8ff0434c:	00022880 	sll	a1,v0,0x2
8ff04350:	3063ffff 	andi	v1,v1,0xffff
8ff04354:	00021100 	sll	v0,v0,0x4
8ff04358:	00a21021 	addu	v0,a1,v0
8ff0435c:	0064202b 	sltu	a0,v1,a0
8ff04360:	1480ffef 	bnez	a0,8ff04320 <ivwDecodeInitScore+0xb0>
8ff04364:	01024021 	addu	t0,t0,v0
8ff04368:	9626001c 	lhu	a2,28(s1)
8ff0436c:	9602002e 	lhu	v0,46(s0)
8ff04370:	00063040 	sll	a2,a2,0x1
8ff04374:	00c23021 	addu	a2,a2,v0
8ff04378:	8e85100c 	lw	a1,4108(s4)
8ff0437c:	02402021 	move	a0,s2
8ff04380:	0ffc0cbf 	jal	8ff032fc <Ivw2681C72D235E04AAB07BE4B52CFC2455C>
8ff04384:	00063080 	sll	a2,a2,0x2
8ff04388:	1040004a 	beqz	v0,8ff044b4 <ivwDecodeInitScore+0x244>
8ff0438c:	ae62000c 	sw	v0,12(s3)
8ff04390:	96040024 	lhu	a0,36(s0)
8ff04394:	9603002e 	lhu	v1,46(s0)
8ff04398:	00042880 	sll	a1,a0,0x2
8ff0439c:	00043100 	sll	a2,a0,0x4
8ff043a0:	8e070010 	lw	a3,16(s0)
8ff043a4:	00032080 	sll	a0,v1,0x2
8ff043a8:	00c52823 	subu	a1,a2,a1
8ff043ac:	00442021 	addu	a0,v0,a0
8ff043b0:	10600012 	beqz	v1,8ff043fc <ivwDecodeInitScore+0x18c>
8ff043b4:	00e53821 	addu	a3,a3,a1
8ff043b8:	10000002 	b	8ff043c4 <ivwDecodeInitScore+0x154>
8ff043bc:	00001821 	move	v1,zero
8ff043c0:	8e62000c 	lw	v0,12(s3)
8ff043c4:	00032880 	sll	a1,v1,0x2
8ff043c8:	00033100 	sll	a2,v1,0x4
8ff043cc:	00451021 	addu	v0,v0,a1
8ff043d0:	00c52823 	subu	a1,a2,a1
8ff043d4:	ac440000 	sw	a0,0(v0)
8ff043d8:	00e52821 	addu	a1,a3,a1
8ff043dc:	8ca50000 	lw	a1,0(a1)
8ff043e0:	24630001 	addiu	v1,v1,1
8ff043e4:	9602002e 	lhu	v0,46(s0)
8ff043e8:	3063ffff 	andi	v1,v1,0xffff
8ff043ec:	000528c0 	sll	a1,a1,0x3
8ff043f0:	0062102b 	sltu	v0,v1,v0
8ff043f4:	1440fff2 	bnez	v0,8ff043c0 <ivwDecodeInitScore+0x150>
8ff043f8:	00852021 	addu	a0,a0,a1
8ff043fc:	96020026 	lhu	v0,38(s0)
8ff04400:	14400035 	bnez	v0,8ff044d8 <ivwDecodeInitScore+0x268>
8ff04404:	00000000 	nop
8ff04408:	00001021 	move	v0,zero
8ff0440c:	96030028 	lhu	v1,40(s0)
8ff04410:	10600007 	beqz	v1,8ff04430 <ivwDecodeInitScore+0x1c0>
8ff04414:	00021880 	sll	v1,v0,0x2
8ff04418:	8e64000c 	lw	a0,12(s3)
8ff0441c:	00831821 	addu	v1,a0,v1
8ff04420:	ae630014 	sw	v1,20(s3)
8ff04424:	96030028 	lhu	v1,40(s0)
8ff04428:	00431021 	addu	v0,v0,v1
8ff0442c:	3042ffff 	andi	v0,v0,0xffff
8ff04430:	9603002a 	lhu	v1,42(s0)
8ff04434:	10600007 	beqz	v1,8ff04454 <ivwDecodeInitScore+0x1e4>
8ff04438:	00021880 	sll	v1,v0,0x2
8ff0443c:	8e64000c 	lw	a0,12(s3)
8ff04440:	00831821 	addu	v1,a0,v1
8ff04444:	ae630018 	sw	v1,24(s3)
8ff04448:	9603002a 	lhu	v1,42(s0)
8ff0444c:	00431021 	addu	v0,v0,v1
8ff04450:	3042ffff 	andi	v0,v0,0xffff
8ff04454:	9603002c 	lhu	v1,44(s0)
8ff04458:	10600004 	beqz	v1,8ff0446c <ivwDecodeInitScore+0x1fc>
8ff0445c:	00021080 	sll	v0,v0,0x2
8ff04460:	8e63000c 	lw	v1,12(s3)
8ff04464:	00621021 	addu	v0,v1,v0
8ff04468:	ae62001c 	sw	v0,28(s3)
8ff0446c:	8e85100c 	lw	a1,4108(s4)
8ff04470:	02402021 	move	a0,s2
8ff04474:	0ffc0cbf 	jal	8ff032fc <Ivw2681C72D235E04AAB07BE4B52CFC2455C>
8ff04478:	24060186 	li	a2,390
8ff0447c:	1040000d 	beqz	v0,8ff044b4 <ivwDecodeInitScore+0x244>
8ff04480:	ae620050 	sw	v0,80(s3)
8ff04484:	96030032 	lhu	v1,50(s0)
8ff04488:	00001021 	move	v0,zero
8ff0448c:	00031842 	srl	v1,v1,0x1
8ff04490:	a6630054 	sh	v1,84(s3)
8ff04494:	8fbf0024 	lw	ra,36(sp)
8ff04498:	8fb40020 	lw	s4,32(sp)
8ff0449c:	8fb3001c 	lw	s3,28(sp)
8ff044a0:	8fb20018 	lw	s2,24(sp)
8ff044a4:	8fb10014 	lw	s1,20(sp)
8ff044a8:	8fb00010 	lw	s0,16(sp)
8ff044ac:	03e00008 	jr	ra
8ff044b0:	27bd0028 	addiu	sp,sp,40
8ff044b4:	8fbf0024 	lw	ra,36(sp)
8ff044b8:	8fb40020 	lw	s4,32(sp)
8ff044bc:	8fb3001c 	lw	s3,28(sp)
8ff044c0:	8fb20018 	lw	s2,24(sp)
8ff044c4:	8fb10014 	lw	s1,20(sp)
8ff044c8:	8fb00010 	lw	s0,16(sp)
8ff044cc:	24020004 	li	v0,4
8ff044d0:	03e00008 	jr	ra
8ff044d4:	27bd0028 	addiu	sp,sp,40
8ff044d8:	8e62000c 	lw	v0,12(s3)
8ff044dc:	ae620010 	sw	v0,16(s3)
8ff044e0:	1000ffca 	b	8ff0440c <ivwDecodeInitScore+0x19c>
8ff044e4:	96020026 	lhu	v0,38(s0)
8ff044e8:	1000ff7f 	b	8ff042e8 <ivwDecodeInitScore+0x78>
8ff044ec:	00001821 	move	v1,zero

8ff044f0 <Ivw6FF21B97FD10412FA6EDD5A515290>:
8ff044f0:	27bdffd0 	addiu	sp,sp,-48
8ff044f4:	2403ffff 	li	v1,-1
8ff044f8:	3c028800 	lui	v0,0x8800
8ff044fc:	afb10018 	sw	s1,24(sp)
8ff04500:	afb00014 	sw	s0,20(sp)
8ff04504:	afbf002c 	sw	ra,44(sp)
8ff04508:	afb50028 	sw	s5,40(sp)
8ff0450c:	afb40024 	sw	s4,36(sp)
8ff04510:	afb30020 	sw	s3,32(sp)
8ff04514:	afb2001c 	sw	s2,28(sp)
8ff04518:	aca00000 	sw	zero,0(a1)
8ff0451c:	a4a30036 	sh	v1,54(a1)
8ff04520:	a4a30042 	sh	v1,66(a1)
8ff04524:	aca20020 	sw	v0,32(a1)
8ff04528:	aca00024 	sw	zero,36(a1)
8ff0452c:	aca2002c 	sw	v0,44(a1)
8ff04530:	aca00038 	sw	zero,56(a1)
8ff04534:	94830024 	lhu	v1,36(a0)
8ff04538:	00808821 	move	s1,a0
8ff0453c:	8c890010 	lw	t1,16(a0)
8ff04540:	00a08021 	move	s0,a1
8ff04544:	00032080 	sll	a0,v1,0x2
8ff04548:	00032900 	sll	a1,v1,0x4
8ff0454c:	9622002e 	lhu	v0,46(s1)
8ff04550:	00a42023 	subu	a0,a1,a0
8ff04554:	01244821 	addu	t1,t1,a0
8ff04558:	00005021 	move	t2,zero
8ff0455c:	1040001f 	beqz	v0,8ff045dc <Ivw6FF21B97FD10412FA6EDD5A515290+0xec>
8ff04560:	3c078800 	lui	a3,0x8800
8ff04564:	8d230000 	lw	v1,0(t1)
8ff04568:	10600016 	beqz	v1,8ff045c4 <Ivw6FF21B97FD10412FA6EDD5A515290+0xd4>
8ff0456c:	00000000 	nop
8ff04570:	000a3080 	sll	a2,t2,0x2
8ff04574:	00002821 	move	a1,zero
8ff04578:	00001021 	move	v0,zero
8ff0457c:	8e04000c 	lw	a0,12(s0)
8ff04580:	000518c0 	sll	v1,a1,0x3
8ff04584:	00862021 	addu	a0,a0,a2
8ff04588:	8c840000 	lw	a0,0(a0)
8ff0458c:	24420001 	addiu	v0,v0,1
8ff04590:	00832021 	addu	a0,a0,v1
8ff04594:	ac870000 	sw	a3,0(a0)
8ff04598:	8e05000c 	lw	a1,12(s0)
8ff0459c:	3042ffff 	andi	v0,v0,0xffff
8ff045a0:	00a62821 	addu	a1,a1,a2
8ff045a4:	8ca80000 	lw	t0,0(a1)
8ff045a8:	01031821 	addu	v1,t0,v1
8ff045ac:	ac670004 	sw	a3,4(v1)
8ff045b0:	8d230000 	lw	v1,0(t1)
8ff045b4:	0043182b 	sltu	v1,v0,v1
8ff045b8:	1460fff0 	bnez	v1,8ff0457c <Ivw6FF21B97FD10412FA6EDD5A515290+0x8c>
8ff045bc:	00402821 	move	a1,v0
8ff045c0:	9622002e 	lhu	v0,46(s1)
8ff045c4:	254a0001 	addiu	t2,t2,1
8ff045c8:	314affff 	andi	t2,t2,0xffff
8ff045cc:	0142182b 	sltu	v1,t2,v0
8ff045d0:	1460ffe4 	bnez	v1,8ff04564 <Ivw6FF21B97FD10412FA6EDD5A515290+0x74>
8ff045d4:	2529000c 	addiu	t1,t1,12
8ff045d8:	96230024 	lhu	v1,36(s1)
8ff045dc:	0000a821 	move	s5,zero
8ff045e0:	1060002c 	beqz	v1,8ff04694 <Ivw6FF21B97FD10412FA6EDD5A515290+0x1a4>
8ff045e4:	3c148800 	lui	s4,0x8800
8ff045e8:	8e230010 	lw	v1,16(s1)
8ff045ec:	00159080 	sll	s2,s5,0x2
8ff045f0:	00151100 	sll	v0,s5,0x4
8ff045f4:	00521023 	subu	v0,v0,s2
8ff045f8:	00621021 	addu	v0,v1,v0
8ff045fc:	8e030008 	lw	v1,8(s0)
8ff04600:	8c530000 	lw	s3,0(v0)
8ff04604:	00721821 	addu	v1,v1,s2
8ff04608:	00131100 	sll	v0,s3,0x4
8ff0460c:	8c640000 	lw	a0,0(v1)
8ff04610:	00132880 	sll	a1,s3,0x2
8ff04614:	0ffc19d0 	jal	8ff06740 <Ivw6F3AC527286E4ACE8A9D00C043242>
8ff04618:	00a22821 	addu	a1,a1,v0
8ff0461c:	2a630002 	slti	v1,s3,2
8ff04620:	1460000d 	bnez	v1,8ff04658 <Ivw6FF21B97FD10412FA6EDD5A515290+0x168>
8ff04624:	24020001 	li	v0,1
8ff04628:	8e030008 	lw	v1,8(s0)
8ff0462c:	00023080 	sll	a2,v0,0x2
8ff04630:	00721821 	addu	v1,v1,s2
8ff04634:	8c630000 	lw	v1,0(v1)
8ff04638:	00022900 	sll	a1,v0,0x4
8ff0463c:	24420001 	addiu	v0,v0,1
8ff04640:	00c52821 	addu	a1,a2,a1
8ff04644:	3042ffff 	andi	v0,v0,0xffff
8ff04648:	00652821 	addu	a1,v1,a1
8ff0464c:	0053182a 	slt	v1,v0,s3
8ff04650:	1460fff5 	bnez	v1,8ff04628 <Ivw6FF21B97FD10412FA6EDD5A515290+0x138>
8ff04654:	acb40000 	sw	s4,0(a1)
8ff04658:	8e020008 	lw	v0,8(s0)
8ff0465c:	24030001 	li	v1,1
8ff04660:	00521021 	addu	v0,v0,s2
8ff04664:	8c420000 	lw	v0,0(v0)
8ff04668:	26b50001 	addiu	s5,s5,1
8ff0466c:	ac400000 	sw	zero,0(v0)
8ff04670:	8e020008 	lw	v0,8(s0)
8ff04674:	32b5ffff 	andi	s5,s5,0xffff
8ff04678:	00529021 	addu	s2,v0,s2
8ff0467c:	8e420000 	lw	v0,0(s2)
8ff04680:	ac430004 	sw	v1,4(v0)
8ff04684:	96220024 	lhu	v0,36(s1)
8ff04688:	02a2102b 	sltu	v0,s5,v0
8ff0468c:	1440ffd6 	bnez	v0,8ff045e8 <Ivw6FF21B97FD10412FA6EDD5A515290+0xf8>
8ff04690:	00000000 	nop
8ff04694:	3c028800 	lui	v0,0x8800
8ff04698:	ae02004c 	sw	v0,76(s0)
8ff0469c:	ae000048 	sw	zero,72(s0)
8ff046a0:	8fbf002c 	lw	ra,44(sp)
8ff046a4:	8fb50028 	lw	s5,40(sp)
8ff046a8:	8fb40024 	lw	s4,36(sp)
8ff046ac:	8fb30020 	lw	s3,32(sp)
8ff046b0:	8fb2001c 	lw	s2,28(sp)
8ff046b4:	8fb10018 	lw	s1,24(sp)
8ff046b8:	8fb00014 	lw	s0,20(sp)
8ff046bc:	00001021 	move	v0,zero
8ff046c0:	03e00008 	jr	ra
8ff046c4:	27bd0030 	addiu	sp,sp,48

8ff046c8 <Ivw299454EE8C4541DF9A741BB09595E>:
8ff046c8:	27bdffc8 	addiu	sp,sp,-56
8ff046cc:	afbf0034 	sw	ra,52(sp)
8ff046d0:	afbe0030 	sw	s8,48(sp)
8ff046d4:	afb7002c 	sw	s7,44(sp)
8ff046d8:	afb60028 	sw	s6,40(sp)
8ff046dc:	afb50024 	sw	s5,36(sp)
8ff046e0:	afb40020 	sw	s4,32(sp)
8ff046e4:	afb3001c 	sw	s3,28(sp)
8ff046e8:	afb20018 	sw	s2,24(sp)
8ff046ec:	afb10014 	sw	s1,20(sp)
8ff046f0:	1080001d 	beqz	a0,8ff04768 <Ivw299454EE8C4541DF9A741BB09595E+0xa0>
8ff046f4:	afb00010 	sw	s0,16(sp)
8ff046f8:	10a0001c 	beqz	a1,8ff0476c <Ivw299454EE8C4541DF9A741BB09595E+0xa4>
8ff046fc:	8fbf0034 	lw	ra,52(sp)
8ff04700:	10c0001a 	beqz	a2,8ff0476c <Ivw299454EE8C4541DF9A741BB09595E+0xa4>
8ff04704:	00a09821 	move	s3,a1
8ff04708:	00c0a821 	move	s5,a2
8ff0470c:	24050104 	li	a1,260
8ff04710:	00808021 	move	s0,a0
8ff04714:	0ffc19d0 	jal	8ff06740 <Ivw6F3AC527286E4ACE8A9D00C043242>
8ff04718:	00e08821 	move	s1,a3
8ff0471c:	96a21020 	lhu	v0,4128(s5)
8ff04720:	96630038 	lhu	v1,56(s3)
8ff04724:	0062182b 	sltu	v1,v1,v0
8ff04728:	1060001d 	beqz	v1,8ff047a0 <Ivw299454EE8C4541DF9A741BB09595E+0xd8>
8ff0472c:	00022140 	sll	a0,v0,0x5
8ff04730:	24110007 	li	s1,7
8ff04734:	8fbf0034 	lw	ra,52(sp)
8ff04738:	02201021 	move	v0,s1
8ff0473c:	8fbe0030 	lw	s8,48(sp)
8ff04740:	8fb7002c 	lw	s7,44(sp)
8ff04744:	8fb60028 	lw	s6,40(sp)
8ff04748:	8fb50024 	lw	s5,36(sp)
8ff0474c:	8fb40020 	lw	s4,32(sp)
8ff04750:	8fb3001c 	lw	s3,28(sp)
8ff04754:	8fb20018 	lw	s2,24(sp)
8ff04758:	8fb10014 	lw	s1,20(sp)
8ff0475c:	8fb00010 	lw	s0,16(sp)
8ff04760:	03e00008 	jr	ra
8ff04764:	27bd0038 	addiu	sp,sp,56
8ff04768:	8fbf0034 	lw	ra,52(sp)
8ff0476c:	24110001 	li	s1,1
8ff04770:	02201021 	move	v0,s1
8ff04774:	8fbe0030 	lw	s8,48(sp)
8ff04778:	8fb7002c 	lw	s7,44(sp)
8ff0477c:	8fb60028 	lw	s6,40(sp)
8ff04780:	8fb50024 	lw	s5,36(sp)
8ff04784:	8fb40020 	lw	s4,32(sp)
8ff04788:	8fb3001c 	lw	s3,28(sp)
8ff0478c:	8fb20018 	lw	s2,24(sp)
8ff04790:	8fb10014 	lw	s1,20(sp)
8ff04794:	8fb00010 	lw	s0,16(sp)
8ff04798:	03e00008 	jr	ra
8ff0479c:	27bd0038 	addiu	sp,sp,56
8ff047a0:	8e630024 	lw	v1,36(s3)
8ff047a4:	02631821 	addu	v1,s3,v1
8ff047a8:	ae030008 	sw	v1,8(s0)
8ff047ac:	8e630028 	lw	v1,40(s3)
8ff047b0:	0002b0c0 	sll	s6,v0,0x3
8ff047b4:	02631821 	addu	v1,s3,v1
8ff047b8:	ae03000c 	sw	v1,12(s0)
8ff047bc:	8e63002c 	lw	v1,44(s3)
8ff047c0:	02c4b021 	addu	s6,s6,a0
8ff047c4:	a6030030 	sh	v1,48(s0)
8ff047c8:	02c2b023 	subu	s6,s6,v0
8ff047cc:	8e630030 	lw	v1,48(s3)
8ff047d0:	0016b080 	sll	s6,s6,0x2
8ff047d4:	26d62140 	addiu	s6,s6,8512
8ff047d8:	a6030032 	sh	v1,50(s0)
8ff047dc:	0276b021 	addu	s6,s3,s6
8ff047e0:	8ec20008 	lw	v0,8(s6)
8ff047e4:	266600dc 	addiu	a2,s3,220
8ff047e8:	a6020024 	sh	v0,36(s0)
8ff047ec:	96c2000c 	lhu	v0,12(s6)
8ff047f0:	001188c0 	sll	s1,s1,0x3
8ff047f4:	a6020026 	sh	v0,38(s0)
8ff047f8:	96c40010 	lhu	a0,16(s6)
8ff047fc:	26650040 	addiu	a1,s3,64
8ff04800:	a6040028 	sh	a0,40(s0)
8ff04804:	96c30014 	lhu	v1,20(s6)
8ff04808:	00822021 	addu	a0,a0,v0
8ff0480c:	a603002a 	sh	v1,42(s0)
8ff04810:	96c20018 	lhu	v0,24(s6)
8ff04814:	00641821 	addu	v1,v1,a0
8ff04818:	00431821 	addu	v1,v0,v1
8ff0481c:	a603002e 	sh	v1,46(s0)
8ff04820:	a602002c 	sh	v0,44(s0)
8ff04824:	ae060034 	sw	a2,52(s0)
8ff04828:	8ea309c0 	lw	v1,2496(s5)
8ff0482c:	2662008e 	addiu	v0,s3,142
8ff04830:	00711821 	addu	v1,v1,s1
8ff04834:	ac650000 	sw	a1,0(v1)
8ff04838:	8ea309c0 	lw	v1,2496(s5)
8ff0483c:	26b71010 	addiu	s7,s5,4112
8ff04840:	00718821 	addu	s1,v1,s1
8ff04844:	ae220004 	sw	v0,4(s1)
8ff04848:	9603002e 	lhu	v1,46(s0)
8ff0484c:	96020024 	lhu	v0,36(s0)
8ff04850:	8ea5100c 	lw	a1,4108(s5)
8ff04854:	00621021 	addu	v0,v1,v0
8ff04858:	00023080 	sll	a2,v0,0x2
8ff0485c:	00021100 	sll	v0,v0,0x4
8ff04860:	02e02021 	move	a0,s7
8ff04864:	0ffc0cbf 	jal	8ff032fc <Ivw2681C72D235E04AAB07BE4B52CFC2455C>
8ff04868:	00463023 	subu	a2,v0,a2
8ff0486c:	96030026 	lhu	v1,38(s0)
8ff04870:	ae020010 	sw	v0,16(s0)
8ff04874:	10600083 	beqz	v1,8ff04a84 <Ivw299454EE8C4541DF9A741BB09595E+0x3bc>
8ff04878:	96040024 	lhu	a0,36(s0)
8ff0487c:	00042880 	sll	a1,a0,0x2
8ff04880:	00043100 	sll	a2,a0,0x4
8ff04884:	00c52823 	subu	a1,a2,a1
8ff04888:	00452821 	addu	a1,v0,a1
8ff0488c:	00641821 	addu	v1,v1,a0
8ff04890:	ae050014 	sw	a1,20(s0)
8ff04894:	3063ffff 	andi	v1,v1,0xffff
8ff04898:	96050028 	lhu	a1,40(s0)
8ff0489c:	10a00007 	beqz	a1,8ff048bc <Ivw299454EE8C4541DF9A741BB09595E+0x1f4>
8ff048a0:	00033080 	sll	a2,v1,0x2
8ff048a4:	00033900 	sll	a3,v1,0x4
8ff048a8:	00e63023 	subu	a2,a3,a2
8ff048ac:	00463021 	addu	a2,v0,a2
8ff048b0:	00651821 	addu	v1,v1,a1
8ff048b4:	ae060018 	sw	a2,24(s0)
8ff048b8:	3063ffff 	andi	v1,v1,0xffff
8ff048bc:	9605002a 	lhu	a1,42(s0)
8ff048c0:	10a00007 	beqz	a1,8ff048e0 <Ivw299454EE8C4541DF9A741BB09595E+0x218>
8ff048c4:	00033080 	sll	a2,v1,0x2
8ff048c8:	00033900 	sll	a3,v1,0x4
8ff048cc:	00e63023 	subu	a2,a3,a2
8ff048d0:	00463021 	addu	a2,v0,a2
8ff048d4:	00651821 	addu	v1,v1,a1
8ff048d8:	ae06001c 	sw	a2,28(s0)
8ff048dc:	3063ffff 	andi	v1,v1,0xffff
8ff048e0:	9605002c 	lhu	a1,44(s0)
8ff048e4:	10a00005 	beqz	a1,8ff048fc <Ivw299454EE8C4541DF9A741BB09595E+0x234>
8ff048e8:	00032880 	sll	a1,v1,0x2
8ff048ec:	00031900 	sll	v1,v1,0x4
8ff048f0:	00651823 	subu	v1,v1,a1
8ff048f4:	00431821 	addu	v1,v0,v1
8ff048f8:	ae030020 	sw	v1,32(s0)
8ff048fc:	9603002e 	lhu	v1,46(s0)
8ff04900:	8ede0000 	lw	s8,0(s6)
8ff04904:	00832021 	addu	a0,a0,v1
8ff04908:	027ef021 	addu	s8,s3,s8
8ff0490c:	14800004 	bnez	a0,8ff04920 <Ivw299454EE8C4541DF9A741BB09595E+0x258>
8ff04910:	00008821 	move	s1,zero
8ff04914:	10000017 	b	8ff04974 <Ivw299454EE8C4541DF9A741BB09595E+0x2ac>
8ff04918:	26120038 	addiu	s2,s0,56
8ff0491c:	8e020010 	lw	v0,16(s0)
8ff04920:	00111880 	sll	v1,s1,0x2
8ff04924:	00119100 	sll	s2,s1,0x4
8ff04928:	02439023 	subu	s2,s2,v1
8ff0492c:	03d2a021 	addu	s4,s8,s2
8ff04930:	00522021 	addu	a0,v0,s2
8ff04934:	02802821 	move	a1,s4
8ff04938:	0ffc19d8 	jal	8ff06760 <Ivw138EB59E9E47409CA505802FBDF80>
8ff0493c:	2406000c 	li	a2,12
8ff04940:	8e030010 	lw	v1,16(s0)
8ff04944:	8e820008 	lw	v0,8(s4)
8ff04948:	00729021 	addu	s2,v1,s2
8ff0494c:	005e1021 	addu	v0,v0,s8
8ff04950:	ae420008 	sw	v0,8(s2)
8ff04954:	96030024 	lhu	v1,36(s0)
8ff04958:	9602002e 	lhu	v0,46(s0)
8ff0495c:	26310001 	addiu	s1,s1,1
8ff04960:	3231ffff 	andi	s1,s1,0xffff
8ff04964:	00621021 	addu	v0,v1,v0
8ff04968:	0222102a 	slt	v0,s1,v0
8ff0496c:	1440ffeb 	bnez	v0,8ff0491c <Ivw299454EE8C4541DF9A741BB09595E+0x254>
8ff04970:	26120038 	addiu	s2,s0,56
8ff04974:	02002021 	move	a0,s0
8ff04978:	02c02821 	move	a1,s6
8ff0497c:	02a03021 	move	a2,s5
8ff04980:	0ffc109c 	jal	8ff04270 <ivwDecodeInitScore>
8ff04984:	02403821 	move	a3,s2
8ff04988:	1440ff6a 	bnez	v0,8ff04734 <Ivw299454EE8C4541DF9A741BB09595E+0x6c>
8ff0498c:	00408821 	move	s1,v0
8ff04990:	8e620030 	lw	v0,48(s3)
8ff04994:	2c420203 	sltiu	v0,v0,515
8ff04998:	1040003c 	beqz	v0,8ff04a8c <Ivw299454EE8C4541DF9A741BB09595E+0x3c4>
8ff0499c:	26a20400 	addiu	v0,s5,1024
8ff049a0:	ae0200e0 	sw	v0,224(s0)
8ff049a4:	8ec20008 	lw	v0,8(s6)
8ff049a8:	8ea5100c 	lw	a1,4108(s5)
8ff049ac:	00023040 	sll	a2,v0,0x1
8ff049b0:	000210c0 	sll	v0,v0,0x3
8ff049b4:	02e02021 	move	a0,s7
8ff049b8:	0ffc0cbf 	jal	8ff032fc <Ivw2681C72D235E04AAB07BE4B52CFC2455C>
8ff049bc:	00c23021 	addu	a2,a2,v0
8ff049c0:	10400039 	beqz	v0,8ff04aa8 <Ivw299454EE8C4541DF9A741BB09595E+0x3e0>
8ff049c4:	ae0200e4 	sw	v0,228(s0)
8ff049c8:	8ec30008 	lw	v1,8(s6)
8ff049cc:	1060001c 	beqz	v1,8ff04a40 <Ivw299454EE8C4541DF9A741BB09595E+0x378>
8ff049d0:	00002821 	move	a1,zero
8ff049d4:	00002021 	move	a0,zero
8ff049d8:	10000002 	b	8ff049e4 <Ivw299454EE8C4541DF9A741BB09595E+0x31c>
8ff049dc:	24061388 	li	a2,5000
8ff049e0:	8e0200e4 	lw	v0,228(s0)
8ff049e4:	00051840 	sll	v1,a1,0x1
8ff049e8:	000528c0 	sll	a1,a1,0x3
8ff049ec:	00651821 	addu	v1,v1,a1
8ff049f0:	00431021 	addu	v0,v0,v1
8ff049f4:	a4400000 	sh	zero,0(v0)
8ff049f8:	8e0200e4 	lw	v0,228(s0)
8ff049fc:	24840001 	addiu	a0,a0,1
8ff04a00:	00431021 	addu	v0,v0,v1
8ff04a04:	a4400002 	sh	zero,2(v0)
8ff04a08:	8e0200e4 	lw	v0,228(s0)
8ff04a0c:	3084ffff 	andi	a0,a0,0xffff
8ff04a10:	00431021 	addu	v0,v0,v1
8ff04a14:	a4460004 	sh	a2,4(v0)
8ff04a18:	8e0200e4 	lw	v0,228(s0)
8ff04a1c:	00431021 	addu	v0,v0,v1
8ff04a20:	a4400008 	sh	zero,8(v0)
8ff04a24:	8e0200e4 	lw	v0,228(s0)
8ff04a28:	00431821 	addu	v1,v0,v1
8ff04a2c:	a4600006 	sh	zero,6(v1)
8ff04a30:	8ec20008 	lw	v0,8(s6)
8ff04a34:	0082102b 	sltu	v0,a0,v0
8ff04a38:	1440ffe9 	bnez	v0,8ff049e0 <Ivw299454EE8C4541DF9A741BB09595E+0x318>
8ff04a3c:	00802821 	move	a1,a0
8ff04a40:	24020069 	li	v0,105
8ff04a44:	a60200ec 	sh	v0,236(s0)
8ff04a48:	24020028 	li	v0,40
8ff04a4c:	a60200f0 	sh	v0,240(s0)
8ff04a50:	24020064 	li	v0,100
8ff04a54:	26b509c4 	addiu	s5,s5,2500
8ff04a58:	a60200f2 	sh	v0,242(s0)
8ff04a5c:	24020003 	li	v0,3
8ff04a60:	ae1500e8 	sw	s5,232(s0)
8ff04a64:	a60000ee 	sh	zero,238(s0)
8ff04a68:	a60200f4 	sh	v0,244(s0)
8ff04a6c:	ae000000 	sw	zero,0(s0)
8ff04a70:	02002021 	move	a0,s0
8ff04a74:	0ffc113c 	jal	8ff044f0 <Ivw6FF21B97FD10412FA6EDD5A515290>
8ff04a78:	02402821 	move	a1,s2
8ff04a7c:	1000ff2e 	b	8ff04738 <Ivw299454EE8C4541DF9A741BB09595E+0x70>
8ff04a80:	8fbf0034 	lw	ra,52(sp)
8ff04a84:	1000ff84 	b	8ff04898 <Ivw299454EE8C4541DF9A741BB09595E+0x1d0>
8ff04a88:	00801821 	move	v1,a0
8ff04a8c:	96060032 	lhu	a2,50(s0)
8ff04a90:	8ea5100c 	lw	a1,4108(s5)
8ff04a94:	02e02021 	move	a0,s7
8ff04a98:	0ffc0cbf 	jal	8ff032fc <Ivw2681C72D235E04AAB07BE4B52CFC2455C>
8ff04a9c:	00063040 	sll	a2,a2,0x1
8ff04aa0:	1440ffc0 	bnez	v0,8ff049a4 <Ivw299454EE8C4541DF9A741BB09595E+0x2dc>
8ff04aa4:	ae0200e0 	sw	v0,224(s0)
8ff04aa8:	1000ff22 	b	8ff04734 <Ivw299454EE8C4541DF9A741BB09595E+0x6c>
8ff04aac:	24110004 	li	s1,4

8ff04ab0 <Ivw6F3AC527286E4ACE8A6700C043241>:
8ff04ab0:	8c830038 	lw	v1,56(a0)
8ff04ab4:	3c021062 	lui	v0,0x1062
8ff04ab8:	24424dd3 	addiu	v0,v0,19923
8ff04abc:	00620019 	multu	v1,v0
8ff04ac0:	00001010 	mfhi	v0
8ff04ac4:	00021142 	srl	v0,v0,0x5
8ff04ac8:	00022880 	sll	a1,v0,0x2
8ff04acc:	000231c0 	sll	a2,v0,0x7
8ff04ad0:	00c52823 	subu	a1,a2,a1
8ff04ad4:	00a21021 	addu	v0,a1,v0
8ff04ad8:	00021080 	sll	v0,v0,0x2
8ff04adc:	14620064 	bne	v1,v0,8ff04c70 <Ivw6F3AC527286E4ACE8A6700C043241+0x1c0>
8ff04ae0:	00000000 	nop
8ff04ae4:	94820024 	lhu	v0,36(a0)
8ff04ae8:	10400028 	beqz	v0,8ff04b8c <Ivw6F3AC527286E4ACE8A6700C043241+0xdc>
8ff04aec:	8c830010 	lw	v1,16(a0)
8ff04af0:	3c0b8800 	lui	t3,0x8800
8ff04af4:	3c0a0013 	lui	t2,0x13
8ff04af8:	00006021 	move	t4,zero
8ff04afc:	256b0001 	addiu	t3,t3,1
8ff04b00:	254a12d0 	addiu	t2,t2,4816
8ff04b04:	000c4880 	sll	t1,t4,0x2
8ff04b08:	000c2900 	sll	a1,t4,0x4
8ff04b0c:	00a92823 	subu	a1,a1,t1
8ff04b10:	00652821 	addu	a1,v1,a1
8ff04b14:	8ca80000 	lw	t0,0(a1)
8ff04b18:	19000016 	blez	t0,8ff04b74 <Ivw6F3AC527286E4ACE8A6700C043241+0xc4>
8ff04b1c:	00000000 	nop
8ff04b20:	00001021 	move	v0,zero
8ff04b24:	8c830040 	lw	v1,64(a0)
8ff04b28:	00023080 	sll	a2,v0,0x2
8ff04b2c:	00691821 	addu	v1,v1,t1
8ff04b30:	00022900 	sll	a1,v0,0x4
8ff04b34:	8c630000 	lw	v1,0(v1)
8ff04b38:	00c52821 	addu	a1,a2,a1
8ff04b3c:	00652821 	addu	a1,v1,a1
8ff04b40:	8ca30000 	lw	v1,0(a1)
8ff04b44:	24420001 	addiu	v0,v0,1
8ff04b48:	00021400 	sll	v0,v0,0x10
8ff04b4c:	00021403 	sra	v0,v0,0x10
8ff04b50:	006b382a 	slt	a3,v1,t3
8ff04b54:	0048302a 	slt	a2,v0,t0
8ff04b58:	14e00002 	bnez	a3,8ff04b64 <Ivw6F3AC527286E4ACE8A6700C043241+0xb4>
8ff04b5c:	006a1821 	addu	v1,v1,t2
8ff04b60:	aca30000 	sw	v1,0(a1)
8ff04b64:	14c0ffef 	bnez	a2,8ff04b24 <Ivw6F3AC527286E4ACE8A6700C043241+0x74>
8ff04b68:	00000000 	nop
8ff04b6c:	8c830010 	lw	v1,16(a0)
8ff04b70:	94820024 	lhu	v0,36(a0)
8ff04b74:	258c0001 	addiu	t4,t4,1
8ff04b78:	000c6400 	sll	t4,t4,0x10
8ff04b7c:	000c6403 	sra	t4,t4,0x10
8ff04b80:	0182282a 	slt	a1,t4,v0
8ff04b84:	14a0ffdf 	bnez	a1,8ff04b04 <Ivw6F3AC527286E4ACE8A6700C043241+0x54>
8ff04b88:	00000000 	nop
8ff04b8c:	8c860064 	lw	a2,100(a0)
8ff04b90:	3c0a0013 	lui	t2,0x13
8ff04b94:	00023880 	sll	a3,v0,0x2
8ff04b98:	254a12d0 	addiu	t2,t2,4816
8ff04b9c:	00021100 	sll	v0,v0,0x4
8ff04ba0:	9485002e 	lhu	a1,46(a0)
8ff04ba4:	00ca3021 	addu	a2,a2,t2
8ff04ba8:	00476823 	subu	t5,v0,a3
8ff04bac:	ac860064 	sw	a2,100(a0)
8ff04bb0:	006d6821 	addu	t5,v1,t5
8ff04bb4:	10a00025 	beqz	a1,8ff04c4c <Ivw6F3AC527286E4ACE8A6700C043241+0x19c>
8ff04bb8:	00006021 	move	t4,zero
8ff04bbc:	3c0b8800 	lui	t3,0x8800
8ff04bc0:	256b0001 	addiu	t3,t3,1
8ff04bc4:	8da80000 	lw	t0,0(t5)
8ff04bc8:	3103ffff 	andi	v1,t0,0xffff
8ff04bcc:	2462ffff 	addiu	v0,v1,-1
8ff04bd0:	00021400 	sll	v0,v0,0x10
8ff04bd4:	00021403 	sra	v0,v0,0x10
8ff04bd8:	04400016 	bltz	v0,8ff04c34 <Ivw6F3AC527286E4ACE8A6700C043241+0x184>
8ff04bdc:	00000000 	nop
8ff04be0:	000c4880 	sll	t1,t4,0x2
8ff04be4:	01034023 	subu	t0,t0,v1
8ff04be8:	8c850044 	lw	a1,68(a0)
8ff04bec:	000218c0 	sll	v1,v0,0x3
8ff04bf0:	00a92821 	addu	a1,a1,t1
8ff04bf4:	8ca50000 	lw	a1,0(a1)
8ff04bf8:	2442ffff 	addiu	v0,v0,-1
8ff04bfc:	00a32821 	addu	a1,a1,v1
8ff04c00:	00021400 	sll	v0,v0,0x10
8ff04c04:	8ca30000 	lw	v1,0(a1)
8ff04c08:	00021403 	sra	v0,v0,0x10
8ff04c0c:	01023021 	addu	a2,t0,v0
8ff04c10:	006b382a 	slt	a3,v1,t3
8ff04c14:	00063400 	sll	a2,a2,0x10
8ff04c18:	00063403 	sra	a2,a2,0x10
8ff04c1c:	14e00002 	bnez	a3,8ff04c28 <Ivw6F3AC527286E4ACE8A6700C043241+0x178>
8ff04c20:	006a1821 	addu	v1,v1,t2
8ff04c24:	aca30000 	sw	v1,0(a1)
8ff04c28:	04c1ffef 	bgez	a2,8ff04be8 <Ivw6F3AC527286E4ACE8A6700C043241+0x138>
8ff04c2c:	00000000 	nop
8ff04c30:	9485002e 	lhu	a1,46(a0)
8ff04c34:	258c0001 	addiu	t4,t4,1
8ff04c38:	000c6400 	sll	t4,t4,0x10
8ff04c3c:	000c6403 	sra	t4,t4,0x10
8ff04c40:	0185102a 	slt	v0,t4,a1
8ff04c44:	1440ffdf 	bnez	v0,8ff04bc4 <Ivw6F3AC527286E4ACE8A6700C043241+0x114>
8ff04c48:	25ad000c 	addiu	t5,t5,12
8ff04c4c:	8c830080 	lw	v1,128(a0)
8ff04c50:	8c850084 	lw	a1,132(a0)
8ff04c54:	3c020013 	lui	v0,0x13
8ff04c58:	244212d0 	addiu	v0,v0,4816
8ff04c5c:	00621821 	addu	v1,v1,v0
8ff04c60:	00a21021 	addu	v0,a1,v0
8ff04c64:	ac830080 	sw	v1,128(a0)
8ff04c68:	03e00008 	jr	ra
8ff04c6c:	ac820084 	sw	v0,132(a0)
8ff04c70:	03e00008 	jr	ra
8ff04c74:	00000000 	nop

8ff04c78 <Ivw6F3AC527286E4ACE8323700C043241>:
8ff04c78:	948c00f0 	lhu	t4,240(a0)
8ff04c7c:	948d00ee 	lhu	t5,238(a0)
8ff04c80:	8c8e0000 	lw	t6,0(a0)
8ff04c84:	018d1021 	addu	v0,t4,t5
8ff04c88:	004e1021 	addu	v0,v0,t6
8ff04c8c:	00451023 	subu	v0,v0,a1
8ff04c90:	2c420190 	sltiu	v0,v0,400
8ff04c94:	10400036 	beqz	v0,8ff04d70 <Ivw6F3AC527286E4ACE8323700C043241+0xf8>
8ff04c98:	27bdfff8 	addiu	sp,sp,-8
8ff04c9c:	00c55023 	subu	t2,a2,a1
8ff04ca0:	19400033 	blez	t2,8ff04d70 <Ivw6F3AC527286E4ACE8323700C043241+0xf8>
8ff04ca4:	8c8900e8 	lw	t1,232(a0)
8ff04ca8:	00a6102b 	sltu	v0,a1,a2
8ff04cac:	1040004e 	beqz	v0,8ff04de8 <Ivw6F3AC527286E4ACE8323700C043241+0x170>
8ff04cb0:	00a01021 	move	v0,a1
8ff04cb4:	3c0b51eb 	lui	t3,0x51eb
8ff04cb8:	00004021 	move	t0,zero
8ff04cbc:	356b851f 	ori	t3,t3,0x851f
8ff04cc0:	004b0019 	multu	v0,t3
8ff04cc4:	00003810 	mfhi	a3
8ff04cc8:	000739c2 	srl	a3,a3,0x7
8ff04ccc:	00071900 	sll	v1,a3,0x4
8ff04cd0:	00073980 	sll	a3,a3,0x6
8ff04cd4:	00671821 	addu	v1,v1,a3
8ff04cd8:	00033880 	sll	a3,v1,0x2
8ff04cdc:	00671821 	addu	v1,v1,a3
8ff04ce0:	00431823 	subu	v1,v0,v1
8ff04ce4:	00031880 	sll	v1,v1,0x2
8ff04ce8:	01231821 	addu	v1,t1,v1
8ff04cec:	8c630000 	lw	v1,0(v1)
8ff04cf0:	24420001 	addiu	v0,v0,1
8ff04cf4:	1446fff2 	bne	v0,a2,8ff04cc0 <Ivw6F3AC527286E4ACE8323700C043241+0x48>
8ff04cf8:	01034021 	addu	t0,t0,v1
8ff04cfc:	2dce0190 	sltiu	t6,t6,400
8ff04d00:	11c0001e 	beqz	t6,8ff04d7c <Ivw6F3AC527286E4ACE8323700C043241+0x104>
8ff04d04:	00ad2823 	subu	a1,a1,t5
8ff04d08:	28a2000a 	slti	v0,a1,10
8ff04d0c:	14400018 	bnez	v0,8ff04d70 <Ivw6F3AC527286E4ACE8323700C043241+0xf8>
8ff04d10:	00ac102a 	slt	v0,a1,t4
8ff04d14:	10400019 	beqz	v0,8ff04d7c <Ivw6F3AC527286E4ACE8323700C043241+0x104>
8ff04d18:	00001021 	move	v0,zero
8ff04d1c:	10000019 	b	8ff04d84 <Ivw6F3AC527286E4ACE8323700C043241+0x10c>
8ff04d20:	00006021 	move	t4,zero
8ff04d24:	00003821 	move	a3,zero
8ff04d28:	010a001b 	divu	zero,t0,t2
8ff04d2c:	00ac6023 	subu	t4,a1,t4
8ff04d30:	948300ec 	lhu	v1,236(a0)
8ff04d34:	00004012 	mflo	t0
8ff04d38:	00ec001b 	divu	zero,a3,t4
8ff04d3c:	00001012 	mflo	v0
8ff04d40:	afa20000 	sw	v0,0(sp)
8ff04d44:	00081080 	sll	v0,t0,0x2
8ff04d48:	00084100 	sll	t0,t0,0x4
8ff04d4c:	00481021 	addu	v0,v0,t0
8ff04d50:	00022080 	sll	a0,v0,0x2
8ff04d54:	00441021 	addu	v0,v0,a0
8ff04d58:	00002012 	mflo	a0
8ff04d5c:	0044001b 	divu	zero,v0,a0
8ff04d60:	00002012 	mflo	a0
8ff04d64:	0083102a 	slt	v0,a0,v1
8ff04d68:	14400002 	bnez	v0,8ff04d74 <Ivw6F3AC527286E4ACE8323700C043241+0xfc>
8ff04d6c:	2402ffff 	li	v0,-1
8ff04d70:	00001021 	move	v0,zero
8ff04d74:	03e00008 	jr	ra
8ff04d78:	27bd0008 	addiu	sp,sp,8
8ff04d7c:	00ac6023 	subu	t4,a1,t4
8ff04d80:	01801021 	move	v0,t4
8ff04d84:	00a21023 	subu	v0,a1,v0
8ff04d88:	1840fff9 	blez	v0,8ff04d70 <Ivw6F3AC527286E4ACE8323700C043241+0xf8>
8ff04d8c:	0185102b 	sltu	v0,t4,a1
8ff04d90:	1040ffe4 	beqz	v0,8ff04d24 <Ivw6F3AC527286E4ACE8323700C043241+0xac>
8ff04d94:	3c0b51eb 	lui	t3,0x51eb
8ff04d98:	01801021 	move	v0,t4
8ff04d9c:	00003821 	move	a3,zero
8ff04da0:	356b851f 	ori	t3,t3,0x851f
8ff04da4:	004b0019 	multu	v0,t3
8ff04da8:	00003010 	mfhi	a2
8ff04dac:	000631c2 	srl	a2,a2,0x7
8ff04db0:	00061900 	sll	v1,a2,0x4
8ff04db4:	00063180 	sll	a2,a2,0x6
8ff04db8:	00661821 	addu	v1,v1,a2
8ff04dbc:	00033080 	sll	a2,v1,0x2
8ff04dc0:	00661821 	addu	v1,v1,a2
8ff04dc4:	00431823 	subu	v1,v0,v1
8ff04dc8:	00031880 	sll	v1,v1,0x2
8ff04dcc:	01231821 	addu	v1,t1,v1
8ff04dd0:	8c630000 	lw	v1,0(v1)
8ff04dd4:	24420001 	addiu	v0,v0,1
8ff04dd8:	1445fff2 	bne	v0,a1,8ff04da4 <Ivw6F3AC527286E4ACE8323700C043241+0x12c>
8ff04ddc:	00e33821 	addu	a3,a3,v1
8ff04de0:	1000ffd2 	b	8ff04d2c <Ivw6F3AC527286E4ACE8323700C043241+0xb4>
8ff04de4:	010a001b 	divu	zero,t0,t2
8ff04de8:	1000ffc4 	b	8ff04cfc <Ivw6F3AC527286E4ACE8323700C043241+0x84>
8ff04dec:	00004021 	move	t0,zero

8ff04df0 <Ivw7AD047857C3441B28BDC3CCC479D7>:
8ff04df0:	24028000 	li	v0,-32768
8ff04df4:	a4a20000 	sh	v0,0(a1)
8ff04df8:	2402ffff 	li	v0,-1
8ff04dfc:	a4c20000 	sh	v0,0(a2)
8ff04e00:	8482007c 	lh	v0,124(a0)
8ff04e04:	8c8b000c 	lw	t3,12(a0)
8ff04e08:	ac800100 	sw	zero,256(a0)
8ff04e0c:	ac8000f8 	sw	zero,248(a0)
8ff04e10:	0440009a 	bltz	v0,8ff0507c <Ivw7AD047857C3441B28BDC3CCC479D7+0x28c>
8ff04e14:	ac8000fc 	sw	zero,252(a0)
8ff04e18:	27bdffd0 	addiu	sp,sp,-48
8ff04e1c:	afb00018 	sw	s0,24(sp)
8ff04e20:	afbf002c 	sw	ra,44(sp)
8ff04e24:	afb40028 	sw	s4,40(sp)
8ff04e28:	afb30024 	sw	s3,36(sp)
8ff04e2c:	afb20020 	sw	s2,32(sp)
8ff04e30:	afb1001c 	sw	s1,28(sp)
8ff04e34:	00808021 	move	s0,a0
8ff04e38:	8e030010 	lw	v1,16(s0)
8ff04e3c:	00022080 	sll	a0,v0,0x2
8ff04e40:	00024100 	sll	t0,v0,0x4
8ff04e44:	01044023 	subu	t0,t0,a0
8ff04e48:	00684021 	addu	t0,v1,t0
8ff04e4c:	8d030000 	lw	v1,0(t0)
8ff04e50:	8e090040 	lw	t1,64(s0)
8ff04e54:	2463ffff 	addiu	v1,v1,-1
8ff04e58:	00031c00 	sll	v1,v1,0x10
8ff04e5c:	00031c03 	sra	v1,v1,0x10
8ff04e60:	01244821 	addu	t1,t1,a0
8ff04e64:	00035100 	sll	t2,v1,0x4
8ff04e68:	8d290000 	lw	t1,0(t1)
8ff04e6c:	00032080 	sll	a0,v1,0x2
8ff04e70:	008a2021 	addu	a0,a0,t2
8ff04e74:	01242021 	addu	a0,t1,a0
8ff04e78:	8c8a0000 	lw	t2,0(a0)
8ff04e7c:	3c098800 	lui	t1,0x8800
8ff04e80:	25290001 	addiu	t1,t1,1
8ff04e84:	0149482a 	slt	t1,t2,t1
8ff04e88:	15200004 	bnez	t1,8ff04e9c <Ivw7AD047857C3441B28BDC3CCC479D7+0xac>
8ff04e8c:	00000000 	nop
8ff04e90:	8609003c 	lh	t1,60(s0)
8ff04e94:	1123000a 	beq	t1,v1,8ff04ec0 <Ivw7AD047857C3441B28BDC3CCC479D7+0xd0>
8ff04e98:	00000000 	nop
8ff04e9c:	00001021 	move	v0,zero
8ff04ea0:	8fbf002c 	lw	ra,44(sp)
8ff04ea4:	8fb40028 	lw	s4,40(sp)
8ff04ea8:	8fb30024 	lw	s3,36(sp)
8ff04eac:	8fb20020 	lw	s2,32(sp)
8ff04eb0:	8fb1001c 	lw	s1,28(sp)
8ff04eb4:	8fb00018 	lw	s0,24(sp)
8ff04eb8:	03e00008 	jr	ra
8ff04ebc:	27bd0030 	addiu	sp,sp,48
8ff04ec0:	8d030008 	lw	v1,8(t0)
8ff04ec4:	00094840 	sll	t1,t1,0x1
8ff04ec8:	00694821 	addu	t1,v1,t1
8ff04ecc:	85230000 	lh	v1,0(t1)
8ff04ed0:	000318c0 	sll	v1,v1,0x3
8ff04ed4:	01635821 	addu	t3,t3,v1
8ff04ed8:	91680006 	lbu	t0,6(t3)
8ff04edc:	24030002 	li	v1,2
8ff04ee0:	11030049 	beq	t0,v1,8ff05008 <Ivw7AD047857C3441B28BDC3CCC479D7+0x218>
8ff04ee4:	00000000 	nop
8ff04ee8:	8c880004 	lw	t0,4(a0)
8ff04eec:	1900ffeb 	blez	t0,8ff04e9c <Ivw7AD047857C3441B28BDC3CCC479D7+0xac>
8ff04ef0:	00008821 	move	s1,zero
8ff04ef4:	84890008 	lh	t1,8(a0)
8ff04ef8:	8483000c 	lh	v1,12(a0)
8ff04efc:	0128001a 	div	zero,t1,t0
8ff04f00:	8488000a 	lh	t0,10(a0)
8ff04f04:	25080001 	addiu	t0,t0,1
8ff04f08:	00005012 	mflo	t2
8ff04f0c:	006a1821 	addu	v1,v1,t2
8ff04f10:	0068001a 	div	zero,v1,t0
8ff04f14:	00001812 	mflo	v1
8ff04f18:	00024840 	sll	t1,v0,0x1
8ff04f1c:	8e0800e4 	lw	t0,228(s0)
8ff04f20:	000210c0 	sll	v0,v0,0x3
8ff04f24:	01221021 	addu	v0,t1,v0
8ff04f28:	01024021 	addu	t0,t0,v0
8ff04f2c:	28627fff 	slti	v0,v1,32767
8ff04f30:	10400033 	beqz	v0,8ff05000 <Ivw7AD047857C3441B28BDC3CCC479D7+0x210>
8ff04f34:	85080000 	lh	t0,0(t0)
8ff04f38:	28698001 	slti	t1,v1,-32767
8ff04f3c:	24028000 	li	v0,-32768
8ff04f40:	0069100a 	movz	v0,v1,t1
8ff04f44:	a4a20000 	sh	v0,0(a1)
8ff04f48:	8605007c 	lh	a1,124(s0)
8ff04f4c:	0103102a 	slt	v0,t0,v1
8ff04f50:	1040ffd2 	beqz	v0,8ff04e9c <Ivw7AD047857C3441B28BDC3CCC479D7+0xac>
8ff04f54:	a4c50000 	sh	a1,0(a2)
8ff04f58:	16200032 	bnez	s1,8ff05024 <Ivw7AD047857C3441B28BDC3CCC479D7+0x234>
8ff04f5c:	8c850010 	lw	a1,16(a0)
8ff04f60:	8c820004 	lw	v0,4(a0)
8ff04f64:	8e120000 	lw	s2,0(s0)
8ff04f68:	00a21021 	addu	v0,a1,v0
8ff04f6c:	ae020100 	sw	v0,256(s0)
8ff04f70:	2402ffff 	li	v0,-1
8ff04f74:	ae0200fc 	sw	v0,252(s0)
8ff04f78:	8c930010 	lw	s3,16(a0)
8ff04f7c:	8c940004 	lw	s4,4(a0)
8ff04f80:	26450001 	addiu	a1,s2,1
8ff04f84:	02741021 	addu	v0,s3,s4
8ff04f88:	02403021 	move	a2,s2
8ff04f8c:	00a22823 	subu	a1,a1,v0
8ff04f90:	960200f2 	lhu	v0,242(s0)
8ff04f94:	01024021 	addu	t0,t0,v0
8ff04f98:	0068182a 	slt	v1,v1,t0
8ff04f9c:	10600005 	beqz	v1,8ff04fb4 <Ivw7AD047857C3441B28BDC3CCC479D7+0x1c4>
8ff04fa0:	02002021 	move	a0,s0
8ff04fa4:	0ffc131e 	jal	8ff04c78 <Ivw6F3AC527286E4ACE8323700C043241>
8ff04fa8:	afa70014 	sw	a3,20(sp)
8ff04fac:	1440002b 	bnez	v0,8ff0505c <Ivw7AD047857C3441B28BDC3CCC479D7+0x26c>
8ff04fb0:	8fa70014 	lw	a3,20(sp)
8ff04fb4:	1220002c 	beqz	s1,8ff05068 <Ivw7AD047857C3441B28BDC3CCC479D7+0x278>
8ff04fb8:	26420001 	addiu	v0,s2,1
8ff04fbc:	02549023 	subu	s2,s2,s4
8ff04fc0:	02539823 	subu	s3,s2,s3
8ff04fc4:	26730001 	addiu	s3,s3,1
8ff04fc8:	10e00004 	beqz	a3,8ff04fdc <Ivw7AD047857C3441B28BDC3CCC479D7+0x1ec>
8ff04fcc:	00131040 	sll	v0,s3,0x1
8ff04fd0:	001398c0 	sll	s3,s3,0x3
8ff04fd4:	00539821 	addu	s3,v0,s3
8ff04fd8:	acf30000 	sw	s3,0(a3)
8ff04fdc:	8fa20040 	lw	v0,64(sp)
8ff04fe0:	10400024 	beqz	v0,8ff05074 <Ivw7AD047857C3441B28BDC3CCC479D7+0x284>
8ff04fe4:	8fa30040 	lw	v1,64(sp)
8ff04fe8:	00121040 	sll	v0,s2,0x1
8ff04fec:	001290c0 	sll	s2,s2,0x3
8ff04ff0:	00529021 	addu	s2,v0,s2
8ff04ff4:	ac720000 	sw	s2,0(v1)
8ff04ff8:	1000ffa9 	b	8ff04ea0 <Ivw7AD047857C3441B28BDC3CCC479D7+0xb0>
8ff04ffc:	24020032 	li	v0,50
8ff05000:	1000ffd0 	b	8ff04f44 <Ivw7AD047857C3441B28BDC3CCC479D7+0x154>
8ff05004:	24027fff 	li	v0,32767
8ff05008:	8483000a 	lh	v1,10(a0)
8ff0500c:	1860ffa3 	blez	v1,8ff04e9c <Ivw7AD047857C3441B28BDC3CCC479D7+0xac>
8ff05010:	2411ffff 	li	s1,-1
8ff05014:	8488000c 	lh	t0,12(a0)
8ff05018:	0103001a 	div	zero,t0,v1
8ff0501c:	1000ffbe 	b	8ff04f18 <Ivw7AD047857C3441B28BDC3CCC479D7+0x128>
8ff05020:	00001812 	mflo	v1
8ff05024:	ae050100 	sw	a1,256(s0)
8ff05028:	960200f4 	lhu	v0,244(s0)
8ff0502c:	8c850004 	lw	a1,4(a0)
8ff05030:	00a2102a 	slt	v0,a1,v0
8ff05034:	1440ff99 	bnez	v0,8ff04e9c <Ivw7AD047857C3441B28BDC3CCC479D7+0xac>
8ff05038:	2402ffff 	li	v0,-1
8ff0503c:	ae0200fc 	sw	v0,252(s0)
8ff05040:	8e120000 	lw	s2,0(s0)
8ff05044:	8c940004 	lw	s4,4(a0)
8ff05048:	8c930010 	lw	s3,16(a0)
8ff0504c:	02543023 	subu	a2,s2,s4
8ff05050:	00d32823 	subu	a1,a2,s3
8ff05054:	1000ffce 	b	8ff04f90 <Ivw7AD047857C3441B28BDC3CCC479D7+0x1a0>
8ff05058:	24a50001 	addiu	a1,a1,1
8ff0505c:	2402ffff 	li	v0,-1
8ff05060:	1000ff8e 	b	8ff04e9c <Ivw7AD047857C3441B28BDC3CCC479D7+0xac>
8ff05064:	ae0200f8 	sw	v0,248(s0)
8ff05068:	02749821 	addu	s3,s3,s4
8ff0506c:	1000ffd6 	b	8ff04fc8 <Ivw7AD047857C3441B28BDC3CCC479D7+0x1d8>
8ff05070:	00539823 	subu	s3,v0,s3
8ff05074:	1000ff8a 	b	8ff04ea0 <Ivw7AD047857C3441B28BDC3CCC479D7+0xb0>
8ff05078:	24020032 	li	v0,50
8ff0507c:	03e00008 	jr	ra
8ff05080:	00001021 	move	v0,zero

8ff05084 <Ivw2D6D5D04A8B9C45A4C98CF08A6D1330A9>:
8ff05084:	0085182a 	slt	v1,a0,a1
8ff05088:	10600008 	beqz	v1,8ff050ac <Ivw2D6D5D04A8B9C45A4C98CF08A6D1330A9+0x28>
8ff0508c:	00a01021 	move	v0,a1
8ff05090:	00a42023 	subu	a0,a1,a0
8ff05094:	00042043 	sra	a0,a0,0x1
8ff05098:	2883001c 	slti	v1,a0,28
8ff0509c:	1460000e 	bnez	v1,8ff050d8 <Ivw2D6D5D04A8B9C45A4C98CF08A6D1330A9+0x54>
8ff050a0:	3c038ff0 	lui	v1,0x8ff0
8ff050a4:	03e00008 	jr	ra
8ff050a8:	00000000 	nop
8ff050ac:	00851023 	subu	v0,a0,a1
8ff050b0:	00021043 	sra	v0,v0,0x1
8ff050b4:	2843001c 	slti	v1,v0,28
8ff050b8:	1060000d 	beqz	v1,8ff050f0 <Ivw2D6D5D04A8B9C45A4C98CF08A6D1330A9+0x6c>
8ff050bc:	3c038ff0 	lui	v1,0x8ff0
8ff050c0:	246371e0 	addiu	v1,v1,29152
8ff050c4:	00021080 	sll	v0,v0,0x2
8ff050c8:	00431021 	addu	v0,v0,v1
8ff050cc:	8c420000 	lw	v0,0(v0)
8ff050d0:	03e00008 	jr	ra
8ff050d4:	00821021 	addu	v0,a0,v0
8ff050d8:	246371e0 	addiu	v1,v1,29152
8ff050dc:	00042080 	sll	a0,a0,0x2
8ff050e0:	00832021 	addu	a0,a0,v1
8ff050e4:	8c830000 	lw	v1,0(a0)
8ff050e8:	03e00008 	jr	ra
8ff050ec:	00a31021 	addu	v0,a1,v1
8ff050f0:	03e00008 	jr	ra
8ff050f4:	00801021 	move	v0,a0

8ff050f8 <Ivw8C99CEA68F55487A896D56F2C578F>:
8ff050f8:	94820090 	lhu	v0,144(a0)
8ff050fc:	94a60002 	lhu	a2,2(a1)
8ff05100:	94870092 	lhu	a3,146(a0)
8ff05104:	94ad0004 	lhu	t5,4(a1)
8ff05108:	94830094 	lhu	v1,148(a0)
8ff0510c:	94aa0006 	lhu	t2,6(a1)
8ff05110:	00c23023 	subu	a2,a2,v0
8ff05114:	01a76823 	subu	t5,t5,a3
8ff05118:	00063400 	sll	a2,a2,0x10
8ff0511c:	8c820034 	lw	v0,52(a0)
8ff05120:	94870096 	lhu	a3,150(a0)
8ff05124:	94a90008 	lhu	t1,8(a1)
8ff05128:	01435023 	subu	t2,t2,v1
8ff0512c:	00063403 	sra	a2,a2,0x10
8ff05130:	000d6c00 	sll	t5,t5,0x10
8ff05134:	94830098 	lhu	v1,152(a0)
8ff05138:	94a8000a 	lhu	t0,10(a1)
8ff0513c:	00063040 	sll	a2,a2,0x1
8ff05140:	000d6c03 	sra	t5,t5,0x10
8ff05144:	000a5400 	sll	t2,t2,0x10
8ff05148:	94ac000c 	lhu	t4,12(a1)
8ff0514c:	00463021 	addu	a2,v0,a2
8ff05150:	01274823 	subu	t1,t1,a3
8ff05154:	000d6840 	sll	t5,t5,0x1
8ff05158:	9487009a 	lhu	a3,154(a0)
8ff0515c:	000a5403 	sra	t2,t2,0x10
8ff05160:	84ae0000 	lh	t6,0(a1)
8ff05164:	004d6821 	addu	t5,v0,t5
8ff05168:	94ab000e 	lhu	t3,14(a1)
8ff0516c:	84c60000 	lh	a2,0(a2)
8ff05170:	01034023 	subu	t0,t0,v1
8ff05174:	000a5040 	sll	t2,t2,0x1
8ff05178:	9483009c 	lhu	v1,156(a0)
8ff0517c:	00094c00 	sll	t1,t1,0x10
8ff05180:	85af0000 	lh	t7,0(t5)
8ff05184:	004a5021 	addu	t2,v0,t2
8ff05188:	94ad0010 	lhu	t5,16(a1)
8ff0518c:	01876023 	subu	t4,t4,a3
8ff05190:	00094c03 	sra	t1,t1,0x10
8ff05194:	9487009e 	lhu	a3,158(a0)
8ff05198:	00084400 	sll	t0,t0,0x10
8ff0519c:	01c63023 	subu	a2,t6,a2
8ff051a0:	01635823 	subu	t3,t3,v1
8ff051a4:	854e0000 	lh	t6,0(t2)
8ff051a8:	948300a0 	lhu	v1,160(a0)
8ff051ac:	94aa0012 	lhu	t2,18(a1)
8ff051b0:	00094840 	sll	t1,t1,0x1
8ff051b4:	00084403 	sra	t0,t0,0x10
8ff051b8:	000c6400 	sll	t4,t4,0x10
8ff051bc:	00494821 	addu	t1,v0,t1
8ff051c0:	01a76823 	subu	t5,t5,a3
8ff051c4:	00084040 	sll	t0,t0,0x1
8ff051c8:	000c6403 	sra	t4,t4,0x10
8ff051cc:	000b5c00 	sll	t3,t3,0x10
8ff051d0:	948700a2 	lhu	a3,162(a0)
8ff051d4:	00484021 	addu	t0,v0,t0
8ff051d8:	00cf3023 	subu	a2,a2,t7
8ff051dc:	01435023 	subu	t2,t2,v1
8ff051e0:	852f0000 	lh	t7,0(t1)
8ff051e4:	000c6040 	sll	t4,t4,0x1
8ff051e8:	94a90014 	lhu	t1,20(a1)
8ff051ec:	000b5c03 	sra	t3,t3,0x10
8ff051f0:	000d6c00 	sll	t5,t5,0x10
8ff051f4:	948300a4 	lhu	v1,164(a0)
8ff051f8:	004c6021 	addu	t4,v0,t4
8ff051fc:	00ce3023 	subu	a2,a2,t6
8ff05200:	000b5840 	sll	t3,t3,0x1
8ff05204:	850e0000 	lh	t6,0(t0)
8ff05208:	000d6c03 	sra	t5,t5,0x10
8ff0520c:	94a80016 	lhu	t0,22(a1)
8ff05210:	000a5400 	sll	t2,t2,0x10
8ff05214:	004b5821 	addu	t3,v0,t3
8ff05218:	00cf3023 	subu	a2,a2,t7
8ff0521c:	01274823 	subu	t1,t1,a3
8ff05220:	858f0000 	lh	t7,0(t4)
8ff05224:	948700a6 	lhu	a3,166(a0)
8ff05228:	94ac0018 	lhu	t4,24(a1)
8ff0522c:	000d6840 	sll	t5,t5,0x1
8ff05230:	000a5403 	sra	t2,t2,0x10
8ff05234:	004d6821 	addu	t5,v0,t5
8ff05238:	00ce3023 	subu	a2,a2,t6
8ff0523c:	01034023 	subu	t0,t0,v1
8ff05240:	856e0000 	lh	t6,0(t3)
8ff05244:	948300a8 	lhu	v1,168(a0)
8ff05248:	94ab001a 	lhu	t3,26(a1)
8ff0524c:	000a5040 	sll	t2,t2,0x1
8ff05250:	00094c00 	sll	t1,t1,0x10
8ff05254:	004a5021 	addu	t2,v0,t2
8ff05258:	00cf3023 	subu	a2,a2,t7
8ff0525c:	01876023 	subu	t4,t4,a3
8ff05260:	85af0000 	lh	t7,0(t5)
8ff05264:	948700aa 	lhu	a3,170(a0)
8ff05268:	94ad001c 	lhu	t5,28(a1)
8ff0526c:	00094c03 	sra	t1,t1,0x10
8ff05270:	00084400 	sll	t0,t0,0x10
8ff05274:	00ce3023 	subu	a2,a2,t6
8ff05278:	01635823 	subu	t3,t3,v1
8ff0527c:	854e0000 	lh	t6,0(t2)
8ff05280:	948300ac 	lhu	v1,172(a0)
8ff05284:	94aa001e 	lhu	t2,30(a1)
8ff05288:	00094840 	sll	t1,t1,0x1
8ff0528c:	00084403 	sra	t0,t0,0x10
8ff05290:	000c6400 	sll	t4,t4,0x10
8ff05294:	00494821 	addu	t1,v0,t1
8ff05298:	01a76823 	subu	t5,t5,a3
8ff0529c:	00084040 	sll	t0,t0,0x1
8ff052a0:	000c6403 	sra	t4,t4,0x10
8ff052a4:	000b5c00 	sll	t3,t3,0x10
8ff052a8:	948700ae 	lhu	a3,174(a0)
8ff052ac:	00484021 	addu	t0,v0,t0
8ff052b0:	00cf3023 	subu	a2,a2,t7
8ff052b4:	01435023 	subu	t2,t2,v1
8ff052b8:	852f0000 	lh	t7,0(t1)
8ff052bc:	000c6040 	sll	t4,t4,0x1
8ff052c0:	94a90020 	lhu	t1,32(a1)
8ff052c4:	000b5c03 	sra	t3,t3,0x10
8ff052c8:	000d6c00 	sll	t5,t5,0x10
8ff052cc:	948300b0 	lhu	v1,176(a0)
8ff052d0:	004c6021 	addu	t4,v0,t4
8ff052d4:	00ce3023 	subu	a2,a2,t6
8ff052d8:	000b5840 	sll	t3,t3,0x1
8ff052dc:	850e0000 	lh	t6,0(t0)
8ff052e0:	000d6c03 	sra	t5,t5,0x10
8ff052e4:	94a80022 	lhu	t0,34(a1)
8ff052e8:	000a5400 	sll	t2,t2,0x10
8ff052ec:	004b5821 	addu	t3,v0,t3
8ff052f0:	00cf3023 	subu	a2,a2,t7
8ff052f4:	01274823 	subu	t1,t1,a3
8ff052f8:	858f0000 	lh	t7,0(t4)
8ff052fc:	948700b2 	lhu	a3,178(a0)
8ff05300:	94ac0024 	lhu	t4,36(a1)
8ff05304:	000d6840 	sll	t5,t5,0x1
8ff05308:	000a5403 	sra	t2,t2,0x10
8ff0530c:	004d6821 	addu	t5,v0,t5
8ff05310:	00ce3023 	subu	a2,a2,t6
8ff05314:	01034023 	subu	t0,t0,v1
8ff05318:	856e0000 	lh	t6,0(t3)
8ff0531c:	948300b4 	lhu	v1,180(a0)
8ff05320:	94ab0026 	lhu	t3,38(a1)
8ff05324:	000a5040 	sll	t2,t2,0x1
8ff05328:	00094c00 	sll	t1,t1,0x10
8ff0532c:	004a5021 	addu	t2,v0,t2
8ff05330:	00cf3023 	subu	a2,a2,t7
8ff05334:	01876023 	subu	t4,t4,a3
8ff05338:	85af0000 	lh	t7,0(t5)
8ff0533c:	948700b6 	lhu	a3,182(a0)
8ff05340:	94ad0028 	lhu	t5,40(a1)
8ff05344:	00094c03 	sra	t1,t1,0x10
8ff05348:	00084400 	sll	t0,t0,0x10
8ff0534c:	00ce3023 	subu	a2,a2,t6
8ff05350:	01635823 	subu	t3,t3,v1
8ff05354:	854e0000 	lh	t6,0(t2)
8ff05358:	948300b8 	lhu	v1,184(a0)
8ff0535c:	94aa002a 	lhu	t2,42(a1)
8ff05360:	00094840 	sll	t1,t1,0x1
8ff05364:	00084403 	sra	t0,t0,0x10
8ff05368:	000c6400 	sll	t4,t4,0x10
8ff0536c:	00494821 	addu	t1,v0,t1
8ff05370:	01a76823 	subu	t5,t5,a3
8ff05374:	00084040 	sll	t0,t0,0x1
8ff05378:	000c6403 	sra	t4,t4,0x10
8ff0537c:	000b5c00 	sll	t3,t3,0x10
8ff05380:	948700ba 	lhu	a3,186(a0)
8ff05384:	00484021 	addu	t0,v0,t0
8ff05388:	00cf3023 	subu	a2,a2,t7
8ff0538c:	01435023 	subu	t2,t2,v1
8ff05390:	852f0000 	lh	t7,0(t1)
8ff05394:	000c6040 	sll	t4,t4,0x1
8ff05398:	94a9002c 	lhu	t1,44(a1)
8ff0539c:	000b5c03 	sra	t3,t3,0x10
8ff053a0:	000d6c00 	sll	t5,t5,0x10
8ff053a4:	948300bc 	lhu	v1,188(a0)
8ff053a8:	004c6021 	addu	t4,v0,t4
8ff053ac:	00ce3023 	subu	a2,a2,t6
8ff053b0:	000b5840 	sll	t3,t3,0x1
8ff053b4:	850e0000 	lh	t6,0(t0)
8ff053b8:	000d6c03 	sra	t5,t5,0x10
8ff053bc:	94a8002e 	lhu	t0,46(a1)
8ff053c0:	000a5400 	sll	t2,t2,0x10
8ff053c4:	004b5821 	addu	t3,v0,t3
8ff053c8:	00cf3023 	subu	a2,a2,t7
8ff053cc:	01274823 	subu	t1,t1,a3
8ff053d0:	858f0000 	lh	t7,0(t4)
8ff053d4:	948700be 	lhu	a3,190(a0)
8ff053d8:	94ac0030 	lhu	t4,48(a1)
8ff053dc:	000d6840 	sll	t5,t5,0x1
8ff053e0:	000a5403 	sra	t2,t2,0x10
8ff053e4:	004d6821 	addu	t5,v0,t5
8ff053e8:	00ce3023 	subu	a2,a2,t6
8ff053ec:	01034023 	subu	t0,t0,v1
8ff053f0:	856e0000 	lh	t6,0(t3)
8ff053f4:	948300c0 	lhu	v1,192(a0)
8ff053f8:	94ab0032 	lhu	t3,50(a1)
8ff053fc:	000a5040 	sll	t2,t2,0x1
8ff05400:	00094c00 	sll	t1,t1,0x10
8ff05404:	004a5021 	addu	t2,v0,t2
8ff05408:	00cf3023 	subu	a2,a2,t7
8ff0540c:	01876023 	subu	t4,t4,a3
8ff05410:	85af0000 	lh	t7,0(t5)
8ff05414:	948700c2 	lhu	a3,194(a0)
8ff05418:	94ad0034 	lhu	t5,52(a1)
8ff0541c:	00094c03 	sra	t1,t1,0x10
8ff05420:	00084400 	sll	t0,t0,0x10
8ff05424:	00ce3023 	subu	a2,a2,t6
8ff05428:	01635823 	subu	t3,t3,v1
8ff0542c:	854e0000 	lh	t6,0(t2)
8ff05430:	948300c4 	lhu	v1,196(a0)
8ff05434:	94aa0036 	lhu	t2,54(a1)
8ff05438:	00094840 	sll	t1,t1,0x1
8ff0543c:	00084403 	sra	t0,t0,0x10
8ff05440:	000c6400 	sll	t4,t4,0x10
8ff05444:	00494821 	addu	t1,v0,t1
8ff05448:	01a76823 	subu	t5,t5,a3
8ff0544c:	00084040 	sll	t0,t0,0x1
8ff05450:	000c6403 	sra	t4,t4,0x10
8ff05454:	000b5c00 	sll	t3,t3,0x10
8ff05458:	948700c6 	lhu	a3,198(a0)
8ff0545c:	00484021 	addu	t0,v0,t0
8ff05460:	00cf3023 	subu	a2,a2,t7
8ff05464:	01435023 	subu	t2,t2,v1
8ff05468:	852f0000 	lh	t7,0(t1)
8ff0546c:	000c6040 	sll	t4,t4,0x1
8ff05470:	94a90038 	lhu	t1,56(a1)
8ff05474:	000b5c03 	sra	t3,t3,0x10
8ff05478:	000d6c00 	sll	t5,t5,0x10
8ff0547c:	948300c8 	lhu	v1,200(a0)
8ff05480:	004c6021 	addu	t4,v0,t4
8ff05484:	00ce3023 	subu	a2,a2,t6
8ff05488:	000b5840 	sll	t3,t3,0x1
8ff0548c:	850e0000 	lh	t6,0(t0)
8ff05490:	000d6c03 	sra	t5,t5,0x10
8ff05494:	94a8003a 	lhu	t0,58(a1)
8ff05498:	000a5400 	sll	t2,t2,0x10
8ff0549c:	004b5821 	addu	t3,v0,t3
8ff054a0:	00cf3023 	subu	a2,a2,t7
8ff054a4:	01274823 	subu	t1,t1,a3
8ff054a8:	858f0000 	lh	t7,0(t4)
8ff054ac:	948700ca 	lhu	a3,202(a0)
8ff054b0:	94ac003c 	lhu	t4,60(a1)
8ff054b4:	000d6840 	sll	t5,t5,0x1
8ff054b8:	000a5403 	sra	t2,t2,0x10
8ff054bc:	004d6821 	addu	t5,v0,t5
8ff054c0:	00ce3023 	subu	a2,a2,t6
8ff054c4:	01034023 	subu	t0,t0,v1
8ff054c8:	856e0000 	lh	t6,0(t3)
8ff054cc:	948300cc 	lhu	v1,204(a0)
8ff054d0:	94ab003e 	lhu	t3,62(a1)
8ff054d4:	000a5040 	sll	t2,t2,0x1
8ff054d8:	00094c00 	sll	t1,t1,0x10
8ff054dc:	004a5021 	addu	t2,v0,t2
8ff054e0:	00cf3023 	subu	a2,a2,t7
8ff054e4:	01876023 	subu	t4,t4,a3
8ff054e8:	85af0000 	lh	t7,0(t5)
8ff054ec:	948700ce 	lhu	a3,206(a0)
8ff054f0:	94ad0040 	lhu	t5,64(a1)
8ff054f4:	00094c03 	sra	t1,t1,0x10
8ff054f8:	00084400 	sll	t0,t0,0x10
8ff054fc:	00ce3023 	subu	a2,a2,t6
8ff05500:	01635823 	subu	t3,t3,v1
8ff05504:	854e0000 	lh	t6,0(t2)
8ff05508:	948300d0 	lhu	v1,208(a0)
8ff0550c:	94aa0042 	lhu	t2,66(a1)
8ff05510:	00094840 	sll	t1,t1,0x1
8ff05514:	00084403 	sra	t0,t0,0x10
8ff05518:	000c6400 	sll	t4,t4,0x10
8ff0551c:	00494821 	addu	t1,v0,t1
8ff05520:	01a76823 	subu	t5,t5,a3
8ff05524:	00084040 	sll	t0,t0,0x1
8ff05528:	000c6403 	sra	t4,t4,0x10
8ff0552c:	000b5c00 	sll	t3,t3,0x10
8ff05530:	948700d2 	lhu	a3,210(a0)
8ff05534:	00484021 	addu	t0,v0,t0
8ff05538:	00cf3023 	subu	a2,a2,t7
8ff0553c:	01435023 	subu	t2,t2,v1
8ff05540:	852f0000 	lh	t7,0(t1)
8ff05544:	000c6040 	sll	t4,t4,0x1
8ff05548:	94a90044 	lhu	t1,68(a1)
8ff0554c:	000b5c03 	sra	t3,t3,0x10
8ff05550:	000d6c00 	sll	t5,t5,0x10
8ff05554:	948300d4 	lhu	v1,212(a0)
8ff05558:	004c6021 	addu	t4,v0,t4
8ff0555c:	00ce3023 	subu	a2,a2,t6
8ff05560:	000b5840 	sll	t3,t3,0x1
8ff05564:	850e0000 	lh	t6,0(t0)
8ff05568:	000d6c03 	sra	t5,t5,0x10
8ff0556c:	94a80046 	lhu	t0,70(a1)
8ff05570:	000a5400 	sll	t2,t2,0x10
8ff05574:	00cf3023 	subu	a2,a2,t7
8ff05578:	004b5821 	addu	t3,v0,t3
8ff0557c:	858f0000 	lh	t7,0(t4)
8ff05580:	01274823 	subu	t1,t1,a3
8ff05584:	94ac0048 	lhu	t4,72(a1)
8ff05588:	948700d6 	lhu	a3,214(a0)
8ff0558c:	000d6840 	sll	t5,t5,0x1
8ff05590:	000a5403 	sra	t2,t2,0x10
8ff05594:	856b0000 	lh	t3,0(t3)
8ff05598:	004d6821 	addu	t5,v0,t5
8ff0559c:	00ce3023 	subu	a2,a2,t6
8ff055a0:	01034023 	subu	t0,t0,v1
8ff055a4:	94ae004a 	lhu	t6,74(a1)
8ff055a8:	948300d8 	lhu	v1,216(a0)
8ff055ac:	000a5040 	sll	t2,t2,0x1
8ff055b0:	00094c00 	sll	t1,t1,0x10
8ff055b4:	004a5021 	addu	t2,v0,t2
8ff055b8:	00cf3023 	subu	a2,a2,t7
8ff055bc:	01873823 	subu	a3,t4,a3
8ff055c0:	85af0000 	lh	t7,0(t5)
8ff055c4:	948c00da 	lhu	t4,218(a0)
8ff055c8:	94ad004c 	lhu	t5,76(a1)
8ff055cc:	00094c03 	sra	t1,t1,0x10
8ff055d0:	00084400 	sll	t0,t0,0x10
8ff055d4:	01c37023 	subu	t6,t6,v1
8ff055d8:	00cb3023 	subu	a2,a2,t3
8ff055dc:	948300dc 	lhu	v1,220(a0)
8ff055e0:	854b0000 	lh	t3,0(t2)
8ff055e4:	00094840 	sll	t1,t1,0x1
8ff055e8:	94aa004e 	lhu	t2,78(a1)
8ff055ec:	00084403 	sra	t0,t0,0x10
8ff055f0:	00073c00 	sll	a3,a3,0x10
8ff055f4:	00494821 	addu	t1,v0,t1
8ff055f8:	000e2c00 	sll	a1,t6,0x10
8ff055fc:	01ac2023 	subu	a0,t5,t4
8ff05600:	00084040 	sll	t0,t0,0x1
8ff05604:	00073c03 	sra	a3,a3,0x10
8ff05608:	00cf3023 	subu	a2,a2,t7
8ff0560c:	85290000 	lh	t1,0(t1)
8ff05610:	00484021 	addu	t0,v0,t0
8ff05614:	01431823 	subu	v1,t2,v1
8ff05618:	00073840 	sll	a3,a3,0x1
8ff0561c:	00052c03 	sra	a1,a1,0x10
8ff05620:	00042400 	sll	a0,a0,0x10
8ff05624:	00cb3023 	subu	a2,a2,t3
8ff05628:	85080000 	lh	t0,0(t0)
8ff0562c:	00473821 	addu	a3,v0,a3
8ff05630:	00052840 	sll	a1,a1,0x1
8ff05634:	00042403 	sra	a0,a0,0x10
8ff05638:	00031c00 	sll	v1,v1,0x10
8ff0563c:	00c93023 	subu	a2,a2,t1
8ff05640:	84e70000 	lh	a3,0(a3)
8ff05644:	00452821 	addu	a1,v0,a1
8ff05648:	00042040 	sll	a0,a0,0x1
8ff0564c:	00031c03 	sra	v1,v1,0x10
8ff05650:	00c83023 	subu	a2,a2,t0
8ff05654:	84a50000 	lh	a1,0(a1)
8ff05658:	00442021 	addu	a0,v0,a0
8ff0565c:	00031840 	sll	v1,v1,0x1
8ff05660:	00c73023 	subu	a2,a2,a3
8ff05664:	84840000 	lh	a0,0(a0)
8ff05668:	00431821 	addu	v1,v0,v1
8ff0566c:	84630000 	lh	v1,0(v1)
8ff05670:	00c51023 	subu	v0,a2,a1
8ff05674:	00441023 	subu	v0,v0,a0
8ff05678:	00431023 	subu	v0,v0,v1
8ff0567c:	03e00008 	jr	ra
8ff05680:	00021103 	sra	v0,v0,0x4

8ff05684 <IvwDB22C02C987F4A75A7E19AB5D1B29>:
8ff05684:	27bdffc8 	addiu	sp,sp,-56
8ff05688:	afbf0034 	sw	ra,52(sp)
8ff0568c:	afb70030 	sw	s7,48(sp)
8ff05690:	afb6002c 	sw	s6,44(sp)
8ff05694:	afb50028 	sw	s5,40(sp)
8ff05698:	afb40024 	sw	s4,36(sp)
8ff0569c:	afb30020 	sw	s3,32(sp)
8ff056a0:	afb2001c 	sw	s2,28(sp)
8ff056a4:	afb10018 	sw	s1,24(sp)
8ff056a8:	afb00014 	sw	s0,20(sp)
8ff056ac:	30a5ffff 	andi	a1,a1,0xffff
8ff056b0:	8c9700e0 	lw	s7,224(a0)
8ff056b4:	00051040 	sll	v0,a1,0x1
8ff056b8:	02e2b821 	addu	s7,s7,v0
8ff056bc:	86f00000 	lh	s0,0(s7)
8ff056c0:	16000034 	bnez	s0,8ff05794 <IvwDB22C02C987F4A75A7E19AB5D1B29+0x110>
8ff056c4:	000528c0 	sll	a1,a1,0x3
8ff056c8:	8c82000c 	lw	v0,12(a0)
8ff056cc:	00452821 	addu	a1,v0,a1
8ff056d0:	90b30007 	lbu	s3,7(a1)
8ff056d4:	1260003d 	beqz	s3,8ff057cc <IvwDB22C02C987F4A75A7E19AB5D1B29+0x148>
8ff056d8:	3c148ff0 	lui	s4,0x8ff0
8ff056dc:	00809021 	move	s2,a0
8ff056e0:	8c960008 	lw	s6,8(a0)
8ff056e4:	94b50004 	lhu	s5,4(a1)
8ff056e8:	3c108800 	lui	s0,0x8800
8ff056ec:	00008821 	move	s1,zero
8ff056f0:	1000000c 	b	8ff05724 <IvwDB22C02C987F4A75A7E19AB5D1B29+0xa0>
8ff056f4:	269471e0 	addiu	s4,s4,29152
8ff056f8:	00042080 	sll	a0,a0,0x2
8ff056fc:	10e00031 	beqz	a3,8ff057c4 <IvwDB22C02C987F4A75A7E19AB5D1B29+0x140>
8ff05700:	00942021 	addu	a0,a0,s4
8ff05704:	8c900000 	lw	s0,0(a0)
8ff05708:	00508021 	addu	s0,v0,s0
8ff0570c:	26310001 	addiu	s1,s1,1
8ff05710:	00118c00 	sll	s1,s1,0x10
8ff05714:	00118c03 	sra	s1,s1,0x10
8ff05718:	0233102a 	slt	v0,s1,s3
8ff0571c:	1040001c 	beqz	v0,8ff05790 <IvwDB22C02C987F4A75A7E19AB5D1B29+0x10c>
8ff05720:	02001021 	move	v0,s0
8ff05724:	02351021 	addu	v0,s1,s5
8ff05728:	00022900 	sll	a1,v0,0x4
8ff0572c:	00021180 	sll	v0,v0,0x6
8ff05730:	00a22821 	addu	a1,a1,v0
8ff05734:	02402021 	move	a0,s2
8ff05738:	0ffc143e 	jal	8ff050f8 <Ivw8C99CEA68F55487A896D56F2C578F>
8ff0573c:	02c52821 	addu	a1,s6,a1
8ff05740:	00502023 	subu	a0,v0,s0
8ff05744:	02021823 	subu	v1,s0,v0
8ff05748:	00042043 	sra	a0,a0,0x1
8ff0574c:	00031843 	sra	v1,v1,0x1
8ff05750:	0202282a 	slt	a1,s0,v0
8ff05754:	2887001c 	slti	a3,a0,28
8ff05758:	14a0ffe7 	bnez	a1,8ff056f8 <IvwDB22C02C987F4A75A7E19AB5D1B29+0x74>
8ff0575c:	2866001c 	slti	a2,v1,28
8ff05760:	00031880 	sll	v1,v1,0x2
8ff05764:	10c0ffe9 	beqz	a2,8ff0570c <IvwDB22C02C987F4A75A7E19AB5D1B29+0x88>
8ff05768:	00741821 	addu	v1,v1,s4
8ff0576c:	26310001 	addiu	s1,s1,1
8ff05770:	8c620000 	lw	v0,0(v1)
8ff05774:	00118c00 	sll	s1,s1,0x10
8ff05778:	00118c03 	sra	s1,s1,0x10
8ff0577c:	02028021 	addu	s0,s0,v0
8ff05780:	0233102a 	slt	v0,s1,s3
8ff05784:	1440ffe8 	bnez	v0,8ff05728 <IvwDB22C02C987F4A75A7E19AB5D1B29+0xa4>
8ff05788:	02351021 	addu	v0,s1,s5
8ff0578c:	02001021 	move	v0,s0
8ff05790:	a6e20000 	sh	v0,0(s7)
8ff05794:	8fbf0034 	lw	ra,52(sp)
8ff05798:	02001021 	move	v0,s0
8ff0579c:	8fb70030 	lw	s7,48(sp)
8ff057a0:	8fb6002c 	lw	s6,44(sp)
8ff057a4:	8fb50028 	lw	s5,40(sp)
8ff057a8:	8fb40024 	lw	s4,36(sp)
8ff057ac:	8fb30020 	lw	s3,32(sp)
8ff057b0:	8fb2001c 	lw	s2,28(sp)
8ff057b4:	8fb10018 	lw	s1,24(sp)
8ff057b8:	8fb00014 	lw	s0,20(sp)
8ff057bc:	03e00008 	jr	ra
8ff057c0:	27bd0038 	addiu	sp,sp,56
8ff057c4:	1000ffd1 	b	8ff0570c <IvwDB22C02C987F4A75A7E19AB5D1B29+0x88>
8ff057c8:	00408021 	move	s0,v0
8ff057cc:	00001021 	move	v0,zero
8ff057d0:	3c108800 	lui	s0,0x8800
8ff057d4:	1000ffef 	b	8ff05794 <IvwDB22C02C987F4A75A7E19AB5D1B29+0x110>
8ff057d8:	a6e20000 	sh	v0,0(s7)

8ff057dc <Ivw5A9FFFE5F7674764AF1077495118A>:
8ff057dc:	27bdff90 	addiu	sp,sp,-112
8ff057e0:	00052c00 	sll	a1,a1,0x10
8ff057e4:	00052c03 	sra	a1,a1,0x10
8ff057e8:	afbe0068 	sw	s8,104(sp)
8ff057ec:	afb5005c 	sw	s5,92(sp)
8ff057f0:	afbf006c 	sw	ra,108(sp)
8ff057f4:	afb70064 	sw	s7,100(sp)
8ff057f8:	afb60060 	sw	s6,96(sp)
8ff057fc:	afb40058 	sw	s4,88(sp)
8ff05800:	afb30054 	sw	s3,84(sp)
8ff05804:	afb20050 	sw	s2,80(sp)
8ff05808:	afb1004c 	sw	s1,76(sp)
8ff0580c:	afb00048 	sw	s0,72(sp)
8ff05810:	8fbe0080 	lw	s8,128(sp)
8ff05814:	00051880 	sll	v1,a1,0x2
8ff05818:	8c820010 	lw	v0,16(a0)
8ff0581c:	00052900 	sll	a1,a1,0x4
8ff05820:	00a32823 	subu	a1,a1,v1
8ff05824:	afa60078 	sw	a2,120(sp)
8ff05828:	8fc60048 	lw	a2,72(s8)
8ff0582c:	00451021 	addu	v0,v0,a1
8ff05830:	8c500000 	lw	s0,0(v0)
8ff05834:	8fc50008 	lw	a1,8(s8)
8ff05838:	afa60020 	sw	a2,32(sp)
8ff0583c:	8fc60050 	lw	a2,80(s8)
8ff05840:	0080a821 	move	s5,a0
8ff05844:	94840030 	lhu	a0,48(a0)
8ff05848:	00a31821 	addu	v1,a1,v1
8ff0584c:	2610ffff 	addiu	s0,s0,-1
8ff05850:	afa60024 	sw	a2,36(sp)
8ff05854:	8fc6003c 	lw	a2,60(s8)
8ff05858:	00108400 	sll	s0,s0,0x10
8ff0585c:	8c770000 	lw	s7,0(v1)
8ff05860:	00041c00 	sll	v1,a0,0x10
8ff05864:	afa6001c 	sw	a2,28(sp)
8ff05868:	00031c03 	sra	v1,v1,0x10
8ff0586c:	3c068800 	lui	a2,0x8800
8ff05870:	00108403 	sra	s0,s0,0x10
8ff05874:	afa7007c 	sw	a3,124(sp)
8ff05878:	8fd3004c 	lw	s3,76(s8)
8ff0587c:	8eb6000c 	lw	s6,12(s5)
8ff05880:	8c540008 	lw	s4,8(v0)
8ff05884:	afa30028 	sw	v1,40(sp)
8ff05888:	afa00018 	sw	zero,24(sp)
8ff0588c:	1a000087 	blez	s0,8ff05aac <Ivw5A9FFFE5F7674764AF1077495118A+0x2d0>
8ff05890:	afa60010 	sw	a2,16(sp)
8ff05894:	03c01021 	move	v0,s8
8ff05898:	00042027 	nor	a0,zero,a0
8ff0589c:	0200f021 	move	s8,s0
8ff058a0:	afa40030 	sw	a0,48(sp)
8ff058a4:	02808021 	move	s0,s4
8ff058a8:	afb50014 	sw	s5,20(sp)
8ff058ac:	02e0a021 	move	s4,s7
8ff058b0:	02c0b821 	move	s7,s6
8ff058b4:	0260b021 	move	s6,s3
8ff058b8:	10000007 	b	8ff058d8 <Ivw5A9FFFE5F7674764AF1077495118A+0xfc>
8ff058bc:	00409821 	move	s3,v0
8ff058c0:	ae240000 	sw	a0,0(s1)
8ff058c4:	27deffff 	addiu	s8,s8,-1
8ff058c8:	001ef400 	sll	s8,s8,0x10
8ff058cc:	001ef403 	sra	s8,s8,0x10
8ff058d0:	1bc00072 	blez	s8,8ff05a9c <Ivw5A9FFFE5F7674764AF1077495118A+0x2c0>
8ff058d4:	8fb50014 	lw	s5,20(sp)
8ff058d8:	33d2ffff 	andi	s2,s8,0xffff
8ff058dc:	2642ffff 	addiu	v0,s2,-1
8ff058e0:	3042ffff 	andi	v0,v0,0xffff
8ff058e4:	00021840 	sll	v1,v0,0x1
8ff058e8:	02031821 	addu	v1,s0,v1
8ff058ec:	846b0000 	lh	t3,0(v1)
8ff058f0:	00023080 	sll	a2,v0,0x2
8ff058f4:	00021900 	sll	v1,v0,0x4
8ff058f8:	00c33021 	addu	a2,a2,v1
8ff058fc:	000b20c0 	sll	a0,t3,0x3
8ff05900:	02e42021 	addu	a0,s7,a0
8ff05904:	02863021 	addu	a2,s4,a2
8ff05908:	94830002 	lhu	v1,2(a0)
8ff0590c:	001e2840 	sll	a1,s8,0x1
8ff05910:	8cc60000 	lw	a2,0(a2)
8ff05914:	90840006 	lbu	a0,6(a0)
8ff05918:	00027c00 	sll	t7,v0,0x10
8ff0591c:	02052821 	addu	a1,s0,a1
8ff05920:	24020002 	li	v0,2
8ff05924:	84a50000 	lh	a1,0(a1)
8ff05928:	000f7c03 	sra	t7,t7,0x10
8ff0592c:	108200b0 	beq	a0,v0,8ff05bf0 <Ivw5A9FFFE5F7674764AF1077495118A+0x414>
8ff05930:	00c31823 	subu	v1,a2,v1
8ff05934:	001e1100 	sll	v0,s8,0x4
8ff05938:	001e8880 	sll	s1,s8,0x2
8ff0593c:	02228821 	addu	s1,s1,v0
8ff05940:	000530c0 	sll	a2,a1,0x3
8ff05944:	02918821 	addu	s1,s4,s1
8ff05948:	02e6a821 	addu	s5,s7,a2
8ff0594c:	96a40000 	lhu	a0,0(s5)
8ff05950:	8e270000 	lw	a3,0(s1)
8ff05954:	02c3102a 	slt	v0,s6,v1
8ff05958:	14400004 	bnez	v0,8ff0596c <Ivw5A9FFFE5F7674764AF1077495118A+0x190>
8ff0595c:	00e43823 	subu	a3,a3,a0
8ff05960:	02c7102a 	slt	v0,s6,a3
8ff05964:	1040ffd6 	beqz	v0,8ff058c0 <Ivw5A9FFFE5F7674764AF1077495118A+0xe4>
8ff05968:	3c048800 	lui	a0,0x8800
8ff0596c:	8fa40014 	lw	a0,20(sp)
8ff05970:	30a5ffff 	andi	a1,a1,0xffff
8ff05974:	afa3003c 	sw	v1,60(sp)
8ff05978:	afa70040 	sw	a3,64(sp)
8ff0597c:	afab0034 	sw	t3,52(sp)
8ff05980:	0ffc15a1 	jal	8ff05684 <IvwDB22C02C987F4A75A7E19AB5D1B29>
8ff05984:	afaf0038 	sw	t7,56(sp)
8ff05988:	8fa3003c 	lw	v1,60(sp)
8ff0598c:	8fa70040 	lw	a3,64(sp)
8ff05990:	8fab0034 	lw	t3,52(sp)
8ff05994:	00e3202a 	slt	a0,a3,v1
8ff05998:	10800089 	beqz	a0,8ff05bc0 <Ivw5A9FFFE5F7674764AF1077495118A+0x3e4>
8ff0599c:	8faf0038 	lw	t7,56(sp)
8ff059a0:	00621821 	addu	v1,v1,v0
8ff059a4:	000b58c0 	sll	t3,t3,0x3
8ff059a8:	ae230000 	sw	v1,0(s1)
8ff059ac:	02eb5821 	addu	t3,s7,t3
8ff059b0:	91630006 	lbu	v1,6(t3)
8ff059b4:	146000ae 	bnez	v1,8ff05c70 <Ivw5A9FFFE5F7674764AF1077495118A+0x494>
8ff059b8:	000f1880 	sll	v1,t7,0x2
8ff059bc:	000f7900 	sll	t7,t7,0x4
8ff059c0:	006f7821 	addu	t7,v1,t7
8ff059c4:	028f7821 	addu	t7,s4,t7
8ff059c8:	85e40008 	lh	a0,8(t7)
8ff059cc:	a6240008 	sh	a0,8(s1)
8ff059d0:	8de30004 	lw	v1,4(t7)
8ff059d4:	3084ffff 	andi	a0,a0,0xffff
8ff059d8:	ae230004 	sw	v1,4(s1)
8ff059dc:	85e5000c 	lh	a1,12(t7)
8ff059e0:	24630001 	addiu	v1,v1,1
8ff059e4:	a625000c 	sh	a1,12(s1)
8ff059e8:	85e5000a 	lh	a1,10(t7)
8ff059ec:	a625000a 	sh	a1,10(s1)
8ff059f0:	8de50010 	lw	a1,16(t7)
8ff059f4:	ae250010 	sw	a1,16(s1)
8ff059f8:	95650002 	lhu	a1,2(t3)
8ff059fc:	8fa6001c 	lw	a2,28(sp)
8ff05a00:	00a62821 	addu	a1,a1,a2
8ff05a04:	00451023 	subu	v0,v0,a1
8ff05a08:	00822021 	addu	a0,a0,v0
8ff05a0c:	a6240008 	sh	a0,8(s1)
8ff05a10:	ae230004 	sw	v1,4(s1)
8ff05a14:	92a20006 	lbu	v0,6(s5)
8ff05a18:	10400009 	beqz	v0,8ff05a40 <Ivw5A9FFFE5F7674764AF1077495118A+0x264>
8ff05a1c:	8fa60010 	lw	a2,16(sp)
8ff05a20:	8e220000 	lw	v0,0(s1)
8ff05a24:	00c2182a 	slt	v1,a2,v0
8ff05a28:	8fa60018 	lw	a2,24(sp)
8ff05a2c:	0243300b 	movn	a2,s2,v1
8ff05a30:	afa60018 	sw	a2,24(sp)
8ff05a34:	8fa60010 	lw	a2,16(sp)
8ff05a38:	0043300b 	movn	a2,v0,v1
8ff05a3c:	afa60010 	sw	a2,16(sp)
8ff05a40:	8e620000 	lw	v0,0(s3)
8ff05a44:	24030001 	li	v1,1
8ff05a48:	10430085 	beq	v0,v1,8ff05c60 <Ivw5A9FFFE5F7674764AF1077495118A+0x484>
8ff05a4c:	00000000 	nop
8ff05a50:	8e220000 	lw	v0,0(s1)
8ff05a54:	8fa60020 	lw	a2,32(sp)
8ff05a58:	00c21023 	subu	v0,a2,v0
8ff05a5c:	00021143 	sra	v0,v0,0x5
8ff05a60:	24420014 	addiu	v0,v0,20
8ff05a64:	3042ffff 	andi	v0,v0,0xffff
8ff05a68:	2c4300c3 	sltiu	v1,v0,195
8ff05a6c:	1060ff96 	beqz	v1,8ff058c8 <Ivw5A9FFFE5F7674764AF1077495118A+0xec>
8ff05a70:	27deffff 	addiu	s8,s8,-1
8ff05a74:	8fa30024 	lw	v1,36(sp)
8ff05a78:	00021040 	sll	v0,v0,0x1
8ff05a7c:	00621021 	addu	v0,v1,v0
8ff05a80:	94430000 	lhu	v1,0(v0)
8ff05a84:	001ef400 	sll	s8,s8,0x10
8ff05a88:	24630001 	addiu	v1,v1,1
8ff05a8c:	001ef403 	sra	s8,s8,0x10
8ff05a90:	1fc0ff91 	bgtz	s8,8ff058d8 <Ivw5A9FFFE5F7674764AF1077495118A+0xfc>
8ff05a94:	a4430000 	sh	v1,0(v0)
8ff05a98:	8fb50014 	lw	s5,20(sp)
8ff05a9c:	02e0b021 	move	s6,s7
8ff05aa0:	0260f021 	move	s8,s3
8ff05aa4:	0280b821 	move	s7,s4
8ff05aa8:	0200a021 	move	s4,s0
8ff05aac:	8fa60010 	lw	a2,16(sp)
8ff05ab0:	8fa3007c 	lw	v1,124(sp)
8ff05ab4:	24020001 	li	v0,1
8ff05ab8:	ac660000 	sw	a2,0(v1)
8ff05abc:	8fa30078 	lw	v1,120(sp)
8ff05ac0:	8fa60018 	lw	a2,24(sp)
8ff05ac4:	a4660000 	sh	a2,0(v1)
8ff05ac8:	8fc30000 	lw	v1,0(s8)
8ff05acc:	1062009e 	beq	v1,v0,8ff05d48 <Ivw5A9FFFE5F7674764AF1077495118A+0x56c>
8ff05ad0:	3c028800 	lui	v0,0x8800
8ff05ad4:	86900000 	lh	s0,0(s4)
8ff05ad8:	02a02021 	move	a0,s5
8ff05adc:	3205ffff 	andi	a1,s0,0xffff
8ff05ae0:	0ffc15a1 	jal	8ff05684 <IvwDB22C02C987F4A75A7E19AB5D1B29>
8ff05ae4:	001080c0 	sll	s0,s0,0x3
8ff05ae8:	02d08021 	addu	s0,s6,s0
8ff05aec:	8fc3002c 	lw	v1,44(s8)
8ff05af0:	3c048800 	lui	a0,0x8800
8ff05af4:	96050000 	lhu	a1,0(s0)
8ff05af8:	8ee80000 	lw	t0,0(s7)
8ff05afc:	24840001 	addiu	a0,a0,1
8ff05b00:	0064382a 	slt	a3,v1,a0
8ff05b04:	10e0007d 	beqz	a3,8ff05cfc <Ivw5A9FFFE5F7674764AF1077495118A+0x520>
8ff05b08:	01052823 	subu	a1,t0,a1
8ff05b0c:	00a4202a 	slt	a0,a1,a0
8ff05b10:	1480001f 	bnez	a0,8ff05b90 <Ivw5A9FFFE5F7674764AF1077495118A+0x3b4>
8ff05b14:	8fbf006c 	lw	ra,108(sp)
8ff05b18:	00a21821 	addu	v1,a1,v0
8ff05b1c:	aee30000 	sw	v1,0(s7)
8ff05b20:	96e50008 	lhu	a1,8(s7)
8ff05b24:	96040000 	lhu	a0,0(s0)
8ff05b28:	8fa6001c 	lw	a2,28(sp)
8ff05b2c:	00a42023 	subu	a0,a1,a0
8ff05b30:	0086a823 	subu	s5,a0,a2
8ff05b34:	02a2a821 	addu	s5,s5,v0
8ff05b38:	a6f50008 	sh	s5,8(s7)
8ff05b3c:	8fc50000 	lw	a1,0(s8)
8ff05b40:	24040001 	li	a0,1
8ff05b44:	10a40086 	beq	a1,a0,8ff05d60 <Ivw5A9FFFE5F7674764AF1077495118A+0x584>
8ff05b48:	00000000 	nop
8ff05b4c:	8ee40004 	lw	a0,4(s7)
8ff05b50:	24840001 	addiu	a0,a0,1
8ff05b54:	8fa60020 	lw	a2,32(sp)
8ff05b58:	00c31023 	subu	v0,a2,v1
8ff05b5c:	00021143 	sra	v0,v0,0x5
8ff05b60:	24420014 	addiu	v0,v0,20
8ff05b64:	3042ffff 	andi	v0,v0,0xffff
8ff05b68:	2c4300c3 	sltiu	v1,v0,195
8ff05b6c:	10600007 	beqz	v1,8ff05b8c <Ivw5A9FFFE5F7674764AF1077495118A+0x3b0>
8ff05b70:	aee40004 	sw	a0,4(s7)
8ff05b74:	8fa30024 	lw	v1,36(sp)
8ff05b78:	00021040 	sll	v0,v0,0x1
8ff05b7c:	0062b821 	addu	s7,v1,v0
8ff05b80:	96e20000 	lhu	v0,0(s7)
8ff05b84:	24420001 	addiu	v0,v0,1
8ff05b88:	a6e20000 	sh	v0,0(s7)
8ff05b8c:	8fbf006c 	lw	ra,108(sp)
8ff05b90:	8fbe0068 	lw	s8,104(sp)
8ff05b94:	8fb70064 	lw	s7,100(sp)
8ff05b98:	8fb60060 	lw	s6,96(sp)
8ff05b9c:	8fb5005c 	lw	s5,92(sp)
8ff05ba0:	8fb40058 	lw	s4,88(sp)
8ff05ba4:	8fb30054 	lw	s3,84(sp)
8ff05ba8:	8fb20050 	lw	s2,80(sp)
8ff05bac:	8fb1004c 	lw	s1,76(sp)
8ff05bb0:	8fb00048 	lw	s0,72(sp)
8ff05bb4:	00001021 	move	v0,zero
8ff05bb8:	03e00008 	jr	ra
8ff05bbc:	27bd0070 	addiu	sp,sp,112
8ff05bc0:	00e23821 	addu	a3,a3,v0
8ff05bc4:	ae270000 	sw	a3,0(s1)
8ff05bc8:	96250008 	lhu	a1,8(s1)
8ff05bcc:	96a40000 	lhu	a0,0(s5)
8ff05bd0:	8fa6001c 	lw	a2,28(sp)
8ff05bd4:	00a42023 	subu	a0,a1,a0
8ff05bd8:	8e230004 	lw	v1,4(s1)
8ff05bdc:	00862023 	subu	a0,a0,a2
8ff05be0:	00821021 	addu	v0,a0,v0
8ff05be4:	a6220008 	sh	v0,8(s1)
8ff05be8:	1000ff89 	b	8ff05a10 <Ivw5A9FFFE5F7674764AF1077495118A+0x234>
8ff05bec:	24630001 	addiu	v1,v1,1
8ff05bf0:	8fa60028 	lw	a2,40(sp)
8ff05bf4:	03c61023 	subu	v0,s8,a2
8ff05bf8:	2442ffff 	addiu	v0,v0,-1
8ff05bfc:	0440ff4d 	bltz	v0,8ff05934 <Ivw5A9FFFE5F7674764AF1077495118A+0x158>
8ff05c00:	00022040 	sll	a0,v0,0x1
8ff05c04:	02042021 	addu	a0,s0,a0
8ff05c08:	84840000 	lh	a0,0(a0)
8ff05c0c:	00023080 	sll	a2,v0,0x2
8ff05c10:	00021100 	sll	v0,v0,0x4
8ff05c14:	00c21021 	addu	v0,a2,v0
8ff05c18:	000420c0 	sll	a0,a0,0x3
8ff05c1c:	02821021 	addu	v0,s4,v0
8ff05c20:	02e42021 	addu	a0,s7,a0
8ff05c24:	8c420000 	lw	v0,0(v0)
8ff05c28:	94840002 	lhu	a0,2(a0)
8ff05c2c:	00442023 	subu	a0,v0,a0
8ff05c30:	0064102a 	slt	v0,v1,a0
8ff05c34:	1040ff40 	beqz	v0,8ff05938 <Ivw5A9FFFE5F7674764AF1077495118A+0x15c>
8ff05c38:	001e1100 	sll	v0,s8,0x4
8ff05c3c:	8fa30030 	lw	v1,48(sp)
8ff05c40:	02437821 	addu	t7,s2,v1
8ff05c44:	000f7c00 	sll	t7,t7,0x10
8ff05c48:	000f7c03 	sra	t7,t7,0x10
8ff05c4c:	000f1040 	sll	v0,t7,0x1
8ff05c50:	02021021 	addu	v0,s0,v0
8ff05c54:	844b0000 	lh	t3,0(v0)
8ff05c58:	1000ff36 	b	8ff05934 <Ivw5A9FFFE5F7674764AF1077495118A+0x158>
8ff05c5c:	00801821 	move	v1,a0
8ff05c60:	17c3ff7b 	bne	s8,v1,8ff05a50 <Ivw5A9FFFE5F7674764AF1077495118A+0x274>
8ff05c64:	8fb50014 	lw	s5,20(sp)
8ff05c68:	1000ff8d 	b	8ff05aa0 <Ivw5A9FFFE5F7674764AF1077495118A+0x2c4>
8ff05c6c:	02e0b021 	move	s6,s7
8ff05c70:	000f7900 	sll	t7,t7,0x4
8ff05c74:	006f7821 	addu	t7,v1,t7
8ff05c78:	028f7821 	addu	t7,s4,t7
8ff05c7c:	85e40008 	lh	a0,8(t7)
8ff05c80:	8de30004 	lw	v1,4(t7)
8ff05c84:	95e5000c 	lhu	a1,12(t7)
8ff05c88:	0083001a 	div	zero,a0,v1
8ff05c8c:	00003012 	mflo	a2
8ff05c90:	00c51821 	addu	v1,a2,a1
8ff05c94:	a623000c 	sh	v1,12(s1)
8ff05c98:	95e3000a 	lhu	v1,10(t7)
8ff05c9c:	8fa60014 	lw	a2,20(sp)
8ff05ca0:	24630001 	addiu	v1,v1,1
8ff05ca4:	a623000a 	sh	v1,10(s1)
8ff05ca8:	8de40010 	lw	a0,16(t7)
8ff05cac:	8de30004 	lw	v1,4(t7)
8ff05cb0:	a6200008 	sh	zero,8(s1)
8ff05cb4:	00831821 	addu	v1,a0,v1
8ff05cb8:	ae230010 	sw	v1,16(s1)
8ff05cbc:	ae200004 	sw	zero,4(s1)
8ff05cc0:	94c30030 	lhu	v1,48(a2)
8ff05cc4:	13c30003 	beq	s8,v1,8ff05cd4 <Ivw5A9FFFE5F7674764AF1077495118A+0x4f8>
8ff05cc8:	24030001 	li	v1,1
8ff05ccc:	1000ff4a 	b	8ff059f8 <Ivw5A9FFFE5F7674764AF1077495118A+0x21c>
8ff05cd0:	00002021 	move	a0,zero
8ff05cd4:	91630006 	lbu	v1,6(t3)
8ff05cd8:	24040002 	li	a0,2
8ff05cdc:	1464fffb 	bne	v1,a0,8ff05ccc <Ivw5A9FFFE5F7674764AF1077495118A+0x4f0>
8ff05ce0:	24030001 	li	v1,1
8ff05ce4:	a620000c 	sh	zero,12(s1)
8ff05ce8:	a620000a 	sh	zero,10(s1)
8ff05cec:	ae200010 	sw	zero,16(s1)
8ff05cf0:	95640002 	lhu	a0,2(t3)
8ff05cf4:	1000ff40 	b	8ff059f8 <Ivw5A9FFFE5F7674764AF1077495118A+0x21c>
8ff05cf8:	a6240008 	sh	a0,8(s1)
8ff05cfc:	00a3202a 	slt	a0,a1,v1
8ff05d00:	1080ff85 	beqz	a0,8ff05b18 <Ivw5A9FFFE5F7674764AF1077495118A+0x33c>
8ff05d04:	00621821 	addu	v1,v1,v0
8ff05d08:	87c40036 	lh	a0,54(s8)
8ff05d0c:	000420c0 	sll	a0,a0,0x3
8ff05d10:	a6e00008 	sh	zero,8(s7)
8ff05d14:	02c44821 	addu	t1,s6,a0
8ff05d18:	aee30000 	sw	v1,0(s7)
8ff05d1c:	a6e0000c 	sh	zero,12(s7)
8ff05d20:	a6e0000a 	sh	zero,10(s7)
8ff05d24:	aee00010 	sw	zero,16(s7)
8ff05d28:	aee00004 	sw	zero,4(s7)
8ff05d2c:	95250002 	lhu	a1,2(t1)
8ff05d30:	8fa6001c 	lw	a2,28(sp)
8ff05d34:	00451023 	subu	v0,v0,a1
8ff05d38:	0046a823 	subu	s5,v0,a2
8ff05d3c:	24040001 	li	a0,1
8ff05d40:	1000ff84 	b	8ff05b54 <Ivw5A9FFFE5F7674764AF1077495118A+0x378>
8ff05d44:	a6f50008 	sh	s5,8(s7)
8ff05d48:	aee20014 	sw	v0,20(s7)
8ff05d4c:	a6e0001c 	sh	zero,28(s7)
8ff05d50:	aee00018 	sw	zero,24(s7)
8ff05d54:	a6e00020 	sh	zero,32(s7)
8ff05d58:	1000ff5e 	b	8ff05ad4 <Ivw5A9FFFE5F7674764AF1077495118A+0x2f8>
8ff05d5c:	a6e0001e 	sh	zero,30(s7)
8ff05d60:	aee20000 	sw	v0,0(s7)
8ff05d64:	96030000 	lhu	v1,0(s0)
8ff05d68:	8ee40004 	lw	a0,4(s7)
8ff05d6c:	02a3a821 	addu	s5,s5,v1
8ff05d70:	a6f50008 	sh	s5,8(s7)
8ff05d74:	24840001 	addiu	a0,a0,1
8ff05d78:	1000ff76 	b	8ff05b54 <Ivw5A9FFFE5F7674764AF1077495118A+0x378>
8ff05d7c:	00401821 	move	v1,v0

8ff05d80 <Ivw49F0CE68AF0346218FB4F4AD8A121>:
8ff05d80:	27bdffc8 	addiu	sp,sp,-56
8ff05d84:	2402ffff 	li	v0,-1
8ff05d88:	afb2002c 	sw	s2,44(sp)
8ff05d8c:	afbf0034 	sw	ra,52(sp)
8ff05d90:	afb30030 	sw	s3,48(sp)
8ff05d94:	afb10028 	sw	s1,40(sp)
8ff05d98:	afb00024 	sw	s0,36(sp)
8ff05d9c:	a4a20044 	sh	v0,68(a1)
8ff05da0:	94820024 	lhu	v0,36(a0)
8ff05da4:	1040003e 	beqz	v0,8ff05ea0 <Ivw49F0CE68AF0346218FB4F4AD8A121+0x120>
8ff05da8:	00a09021 	move	s2,a1
8ff05dac:	00808821 	move	s1,a0
8ff05db0:	00002821 	move	a1,zero
8ff05db4:	00008021 	move	s0,zero
8ff05db8:	3c138800 	lui	s3,0x8800
8ff05dbc:	02202021 	move	a0,s1
8ff05dc0:	afb20010 	sw	s2,16(sp)
8ff05dc4:	27a6001c 	addiu	a2,sp,28
8ff05dc8:	0ffc15f7 	jal	8ff057dc <Ivw5A9FFFE5F7674764AF1077495118A>
8ff05dcc:	27a70018 	addiu	a3,sp,24
8ff05dd0:	001018c0 	sll	v1,s0,0x3
8ff05dd4:	00101040 	sll	v0,s0,0x1
8ff05dd8:	00431021 	addu	v0,v0,v1
8ff05ddc:	8fa30018 	lw	v1,24(sp)
8ff05de0:	0263282a 	slt	a1,s3,v1
8ff05de4:	10a00005 	beqz	a1,8ff05dfc <Ivw49F0CE68AF0346218FB4F4AD8A121+0x7c>
8ff05de8:	26040001 	addiu	a0,s0,1
8ff05dec:	97a5001c 	lhu	a1,28(sp)
8ff05df0:	a6500044 	sh	s0,68(s2)
8ff05df4:	a6450004 	sh	a1,4(s2)
8ff05df8:	00609821 	move	s3,v1
8ff05dfc:	8e2300e4 	lw	v1,228(s1)
8ff05e00:	00048400 	sll	s0,a0,0x10
8ff05e04:	00621821 	addu	v1,v1,v0
8ff05e08:	94640008 	lhu	a0,8(v1)
8ff05e0c:	00108403 	sra	s0,s0,0x10
8ff05e10:	24840001 	addiu	a0,a0,1
8ff05e14:	a4640008 	sh	a0,8(v1)
8ff05e18:	8e2300e4 	lw	v1,228(s1)
8ff05e1c:	00621821 	addu	v1,v1,v0
8ff05e20:	94660008 	lhu	a2,8(v1)
8ff05e24:	94640004 	lhu	a0,4(v1)
8ff05e28:	0086202b 	sltu	a0,a0,a2
8ff05e2c:	10800005 	beqz	a0,8ff05e44 <Ivw49F0CE68AF0346218FB4F4AD8A121+0xc4>
8ff05e30:	02002821 	move	a1,s0
8ff05e34:	a4600008 	sh	zero,8(v1)
8ff05e38:	8e2300e4 	lw	v1,228(s1)
8ff05e3c:	00621021 	addu	v0,v1,v0
8ff05e40:	a4400006 	sh	zero,6(v0)
8ff05e44:	96220024 	lhu	v0,36(s1)
8ff05e48:	0202102a 	slt	v0,s0,v0
8ff05e4c:	1440ffdc 	bnez	v0,8ff05dc0 <Ivw49F0CE68AF0346218FB4F4AD8A121+0x40>
8ff05e50:	02202021 	move	a0,s1
8ff05e54:	8e420030 	lw	v0,48(s2)
8ff05e58:	0262982a 	slt	s3,s3,v0
8ff05e5c:	12600003 	beqz	s3,8ff05e6c <Ivw49F0CE68AF0346218FB4F4AD8A121+0xec>
8ff05e60:	2403ffff 	li	v1,-1
8ff05e64:	a6430004 	sh	v1,4(s2)
8ff05e68:	a6430044 	sh	v1,68(s2)
8ff05e6c:	96440034 	lhu	a0,52(s2)
8ff05e70:	96430040 	lhu	v1,64(s2)
8ff05e74:	ae42002c 	sw	v0,44(s2)
8ff05e78:	a6440036 	sh	a0,54(s2)
8ff05e7c:	a6430042 	sh	v1,66(s2)
8ff05e80:	8fbf0034 	lw	ra,52(sp)
8ff05e84:	8fb30030 	lw	s3,48(sp)
8ff05e88:	8fb2002c 	lw	s2,44(sp)
8ff05e8c:	8fb10028 	lw	s1,40(sp)
8ff05e90:	8fb00024 	lw	s0,36(sp)
8ff05e94:	00001021 	move	v0,zero
8ff05e98:	03e00008 	jr	ra
8ff05e9c:	27bd0038 	addiu	sp,sp,56
8ff05ea0:	1000ffec 	b	8ff05e54 <Ivw49F0CE68AF0346218FB4F4AD8A121+0xd4>
8ff05ea4:	3c138800 	lui	s3,0x8800

8ff05ea8 <Ivw94DD4B42EB7648F29A6F95A1756DC>:
8ff05ea8:	27bdffc0 	addiu	sp,sp,-64
8ff05eac:	afbe0038 	sw	s8,56(sp)
8ff05eb0:	afbf003c 	sw	ra,60(sp)
8ff05eb4:	afb70034 	sw	s7,52(sp)
8ff05eb8:	afb60030 	sw	s6,48(sp)
8ff05ebc:	afb5002c 	sw	s5,44(sp)
8ff05ec0:	afb40028 	sw	s4,40(sp)
8ff05ec4:	afb30024 	sw	s3,36(sp)
8ff05ec8:	afb20020 	sw	s2,32(sp)
8ff05ecc:	afb1001c 	sw	s1,28(sp)
8ff05ed0:	afb00018 	sw	s0,24(sp)
8ff05ed4:	8cc20000 	lw	v0,0(a2)
8ff05ed8:	afa60048 	sw	a2,72(sp)
8ff05edc:	2442ffff 	addiu	v0,v0,-1
8ff05ee0:	3042ffff 	andi	v0,v0,0xffff
8ff05ee4:	afa40040 	sw	a0,64(sp)
8ff05ee8:	00a0f021 	move	s8,a1
8ff05eec:	afa7004c 	sw	a3,76(sp)
8ff05ef0:	10400088 	beqz	v0,8ff06114 <Ivw94DD4B42EB7648F29A6F95A1756DC+0x26c>
8ff05ef4:	8c95000c 	lw	s5,12(a0)
8ff05ef8:	8fa40048 	lw	a0,72(sp)
8ff05efc:	3c0a8800 	lui	t2,0x8800
8ff05f00:	8c830008 	lw	v1,8(a0)
8ff05f04:	10000011 	b	8ff05f4c <Ivw94DD4B42EB7648F29A6F95A1756DC+0xa4>
8ff05f08:	25540001 	addiu	s4,t2,1
8ff05f0c:	1480000d 	bnez	a0,8ff05f44 <Ivw94DD4B42EB7648F29A6F95A1756DC+0x9c>
8ff05f10:	3202ffff 	andi	v0,s0,0xffff
8ff05f14:	0ffc15a1 	jal	8ff05684 <IvwDB22C02C987F4A75A7E19AB5D1B29>
8ff05f18:	8fa40040 	lw	a0,64(sp)
8ff05f1c:	02c2b021 	addu	s6,s6,v0
8ff05f20:	ae360000 	sw	s6,0(s1)
8ff05f24:	96430002 	lhu	v1,2(s2)
8ff05f28:	8e640004 	lw	a0,4(s3)
8ff05f2c:	8fa50048 	lw	a1,72(sp)
8ff05f30:	00831823 	subu	v1,a0,v1
8ff05f34:	00621021 	addu	v0,v1,v0
8ff05f38:	ae220004 	sw	v0,4(s1)
8ff05f3c:	8ca30008 	lw	v1,8(a1)
8ff05f40:	3202ffff 	andi	v0,s0,0xffff
8ff05f44:	1040002b 	beqz	v0,8ff05ff4 <Ivw94DD4B42EB7648F29A6F95A1756DC+0x14c>
8ff05f48:	00000000 	nop
8ff05f4c:	00022040 	sll	a0,v0,0x1
8ff05f50:	2450ffff 	addiu	s0,v0,-1
8ff05f54:	00642021 	addu	a0,v1,a0
8ff05f58:	94850000 	lhu	a1,0(a0)
8ff05f5c:	00102040 	sll	a0,s0,0x1
8ff05f60:	00642021 	addu	a0,v1,a0
8ff05f64:	94870000 	lhu	a3,0(a0)
8ff05f68:	000210c0 	sll	v0,v0,0x3
8ff05f6c:	000540c0 	sll	t0,a1,0x3
8ff05f70:	03c28821 	addu	s1,s8,v0
8ff05f74:	02a84021 	addu	t0,s5,t0
8ff05f78:	000738c0 	sll	a3,a3,0x3
8ff05f7c:	001030c0 	sll	a2,s0,0x3
8ff05f80:	95020000 	lhu	v0,0(t0)
8ff05f84:	8e370000 	lw	s7,0(s1)
8ff05f88:	03c69821 	addu	s3,s8,a2
8ff05f8c:	02a79021 	addu	s2,s5,a3
8ff05f90:	96440002 	lhu	a0,2(s2)
8ff05f94:	8e760000 	lw	s6,0(s3)
8ff05f98:	02e2b823 	subu	s7,s7,v0
8ff05f9c:	02c4b023 	subu	s6,s6,a0
8ff05fa0:	02f4102a 	slt	v0,s7,s4
8ff05fa4:	1440ffd9 	bnez	v0,8ff05f0c <Ivw94DD4B42EB7648F29A6F95A1756DC+0x64>
8ff05fa8:	02d4202a 	slt	a0,s6,s4
8ff05fac:	8fa40040 	lw	a0,64(sp)
8ff05fb0:	0ffc15a1 	jal	8ff05684 <IvwDB22C02C987F4A75A7E19AB5D1B29>
8ff05fb4:	afa80010 	sw	t0,16(sp)
8ff05fb8:	02e21821 	addu	v1,s7,v0
8ff05fbc:	02f6b82a 	slt	s7,s7,s6
8ff05fc0:	16e0ffd6 	bnez	s7,8ff05f1c <Ivw94DD4B42EB7648F29A6F95A1756DC+0x74>
8ff05fc4:	8fa80010 	lw	t0,16(sp)
8ff05fc8:	ae230000 	sw	v1,0(s1)
8ff05fcc:	95030000 	lhu	v1,0(t0)
8ff05fd0:	8e240004 	lw	a0,4(s1)
8ff05fd4:	00831823 	subu	v1,a0,v1
8ff05fd8:	00621021 	addu	v0,v1,v0
8ff05fdc:	ae220004 	sw	v0,4(s1)
8ff05fe0:	8fa20048 	lw	v0,72(sp)
8ff05fe4:	8c430008 	lw	v1,8(v0)
8ff05fe8:	3202ffff 	andi	v0,s0,0xffff
8ff05fec:	1440ffd8 	bnez	v0,8ff05f50 <Ivw94DD4B42EB7648F29A6F95A1756DC+0xa8>
8ff05ff0:	00022040 	sll	a0,v0,0x1
8ff05ff4:	94700000 	lhu	s0,0(v1)
8ff05ff8:	8fa40040 	lw	a0,64(sp)
8ff05ffc:	0ffc15a1 	jal	8ff05684 <IvwDB22C02C987F4A75A7E19AB5D1B29>
8ff06000:	02002821 	move	a1,s0
8ff06004:	3c038800 	lui	v1,0x8800
8ff06008:	8fa5004c 	lw	a1,76(sp)
8ff0600c:	24630001 	addiu	v1,v1,1
8ff06010:	00a3202a 	slt	a0,a1,v1
8ff06014:	14800013 	bnez	a0,8ff06064 <Ivw94DD4B42EB7648F29A6F95A1756DC+0x1bc>
8ff06018:	00000000 	nop
8ff0601c:	8fc40000 	lw	a0,0(s8)
8ff06020:	0083182a 	slt	v1,a0,v1
8ff06024:	14600031 	bnez	v1,8ff060ec <Ivw94DD4B42EB7648F29A6F95A1756DC+0x244>
8ff06028:	001080c0 	sll	s0,s0,0x3
8ff0602c:	02b04821 	addu	t1,s5,s0
8ff06030:	95230000 	lhu	v1,0(t1)
8ff06034:	8fa5004c 	lw	a1,76(sp)
8ff06038:	00832023 	subu	a0,a0,v1
8ff0603c:	0085182a 	slt	v1,a0,a1
8ff06040:	14600018 	bnez	v1,8ff060a4 <Ivw94DD4B42EB7648F29A6F95A1756DC+0x1fc>
8ff06044:	8fa3004c 	lw	v1,76(sp)
8ff06048:	afc40000 	sw	a0,0(s8)
8ff0604c:	95230000 	lhu	v1,0(t1)
8ff06050:	8fd50004 	lw	s5,4(s8)
8ff06054:	afa4004c 	sw	a0,76(sp)
8ff06058:	02a3a823 	subu	s5,s5,v1
8ff0605c:	10000010 	b	8ff060a0 <Ivw94DD4B42EB7648F29A6F95A1756DC+0x1f8>
8ff06060:	afb50050 	sw	s5,80(sp)
8ff06064:	8fa30054 	lw	v1,84(sp)
8ff06068:	8c640000 	lw	a0,0(v1)
8ff0606c:	24030001 	li	v1,1
8ff06070:	10830022 	beq	a0,v1,8ff060fc <Ivw94DD4B42EB7648F29A6F95A1756DC+0x254>
8ff06074:	001080c0 	sll	s0,s0,0x3
8ff06078:	02b04821 	addu	t1,s5,s0
8ff0607c:	95230000 	lhu	v1,0(t1)
8ff06080:	8fd40000 	lw	s4,0(s8)
8ff06084:	8fd50004 	lw	s5,4(s8)
8ff06088:	0283a023 	subu	s4,s4,v1
8ff0608c:	afd40000 	sw	s4,0(s8)
8ff06090:	95230000 	lhu	v1,0(t1)
8ff06094:	afb4004c 	sw	s4,76(sp)
8ff06098:	02a3a823 	subu	s5,s5,v1
8ff0609c:	afb50050 	sw	s5,80(sp)
8ff060a0:	8fa3004c 	lw	v1,76(sp)
8ff060a4:	0043a021 	addu	s4,v0,v1
8ff060a8:	8fa30050 	lw	v1,80(sp)
8ff060ac:	afd40000 	sw	s4,0(s8)
8ff060b0:	0043a821 	addu	s5,v0,v1
8ff060b4:	afd50004 	sw	s5,4(s8)
8ff060b8:	8fbf003c 	lw	ra,60(sp)
8ff060bc:	8fbe0038 	lw	s8,56(sp)
8ff060c0:	8fb70034 	lw	s7,52(sp)
8ff060c4:	8fb60030 	lw	s6,48(sp)
8ff060c8:	8fb5002c 	lw	s5,44(sp)
8ff060cc:	8fb40028 	lw	s4,40(sp)
8ff060d0:	8fb30024 	lw	s3,36(sp)
8ff060d4:	8fb20020 	lw	s2,32(sp)
8ff060d8:	8fb1001c 	lw	s1,28(sp)
8ff060dc:	8fb00018 	lw	s0,24(sp)
8ff060e0:	00001021 	move	v0,zero
8ff060e4:	03e00008 	jr	ra
8ff060e8:	27bd0040 	addiu	sp,sp,64
8ff060ec:	8fc30004 	lw	v1,4(s8)
8ff060f0:	afa4004c 	sw	a0,76(sp)
8ff060f4:	1000ffea 	b	8ff060a0 <Ivw94DD4B42EB7648F29A6F95A1756DC+0x1f8>
8ff060f8:	afa30050 	sw	v1,80(sp)
8ff060fc:	8fa30048 	lw	v1,72(sp)
8ff06100:	afa00050 	sw	zero,80(sp)
8ff06104:	8c740004 	lw	s4,4(v1)
8ff06108:	0014a023 	negu	s4,s4
8ff0610c:	1000ffe4 	b	8ff060a0 <Ivw94DD4B42EB7648F29A6F95A1756DC+0x1f8>
8ff06110:	afb4004c 	sw	s4,76(sp)
8ff06114:	1000ffb7 	b	8ff05ff4 <Ivw94DD4B42EB7648F29A6F95A1756DC+0x14c>
8ff06118:	8cc30008 	lw	v1,8(a2)

8ff0611c <Ivw021156235A784BA89796335AF580B>:
8ff0611c:	27bdffb8 	addiu	sp,sp,-72
8ff06120:	afb20028 	sw	s2,40(sp)
8ff06124:	afb10024 	sw	s1,36(sp)
8ff06128:	afbf0044 	sw	ra,68(sp)
8ff0612c:	afbe0040 	sw	s8,64(sp)
8ff06130:	afb7003c 	sw	s7,60(sp)
8ff06134:	afb60038 	sw	s6,56(sp)
8ff06138:	afb50034 	sw	s5,52(sp)
8ff0613c:	afb40030 	sw	s4,48(sp)
8ff06140:	afb3002c 	sw	s3,44(sp)
8ff06144:	afb00020 	sw	s0,32(sp)
8ff06148:	94820028 	lhu	v0,40(a0)
8ff0614c:	00809021 	move	s2,a0
8ff06150:	00a08821 	move	s1,a1
8ff06154:	8c90000c 	lw	s0,12(a0)
8ff06158:	8cb5002c 	lw	s5,44(a1)
8ff0615c:	10400019 	beqz	v0,8ff061c4 <Ivw021156235A784BA89796335AF580B+0xa8>
8ff06160:	8cb60038 	lw	s6,56(a1)
8ff06164:	8cb70020 	lw	s7,32(a1)
8ff06168:	02b7102a 	slt	v0,s5,s7
8ff0616c:	14400101 	bnez	v0,8ff06574 <Ivw021156235A784BA89796335AF580B+0x458>
8ff06170:	8c940018 	lw	s4,24(a0)
8ff06174:	02c0f021 	move	s8,s6
8ff06178:	02a0b821 	move	s7,s5
8ff0617c:	00009821 	move	s3,zero
8ff06180:	8e230014 	lw	v1,20(s1)
8ff06184:	00131080 	sll	v0,s3,0x2
8ff06188:	8e870004 	lw	a3,4(s4)
8ff0618c:	00621021 	addu	v0,v1,v0
8ff06190:	8c450000 	lw	a1,0(v0)
8ff06194:	02803021 	move	a2,s4
8ff06198:	afbe0010 	sw	s8,16(sp)
8ff0619c:	afb10014 	sw	s1,20(sp)
8ff061a0:	02402021 	move	a0,s2
8ff061a4:	0ffc17aa 	jal	8ff05ea8 <Ivw94DD4B42EB7648F29A6F95A1756DC>
8ff061a8:	02e73823 	subu	a3,s7,a3
8ff061ac:	26730001 	addiu	s3,s3,1
8ff061b0:	96420028 	lhu	v0,40(s2)
8ff061b4:	3273ffff 	andi	s3,s3,0xffff
8ff061b8:	0262102b 	sltu	v0,s3,v0
8ff061bc:	1440fff0 	bnez	v0,8ff06180 <Ivw021156235A784BA89796335AF580B+0x64>
8ff061c0:	2694000c 	addiu	s4,s4,12
8ff061c4:	96420026 	lhu	v0,38(s2)
8ff061c8:	10400031 	beqz	v0,8ff06290 <Ivw021156235A784BA89796335AF580B+0x174>
8ff061cc:	2402ffff 	li	v0,-1
8ff061d0:	8e530014 	lw	s3,20(s2)
8ff061d4:	afa0001c 	sw	zero,28(sp)
8ff061d8:	3c148800 	lui	s4,0x8800
8ff061dc:	afa20018 	sw	v0,24(sp)
8ff061e0:	0000b821 	move	s7,zero
8ff061e4:	8e240010 	lw	a0,16(s1)
8ff061e8:	00171080 	sll	v0,s7,0x2
8ff061ec:	00821021 	addu	v0,a0,v0
8ff061f0:	8c5e0000 	lw	s8,0(v0)
8ff061f4:	8e670004 	lw	a3,4(s3)
8ff061f8:	02603021 	move	a2,s3
8ff061fc:	02402021 	move	a0,s2
8ff06200:	03c02821 	move	a1,s8
8ff06204:	afb60010 	sw	s6,16(sp)
8ff06208:	afb10014 	sw	s1,20(sp)
8ff0620c:	0ffc17aa 	jal	8ff05ea8 <Ivw94DD4B42EB7648F29A6F95A1756DC>
8ff06210:	02a73823 	subu	a3,s5,a3
8ff06214:	8e620000 	lw	v0,0(s3)
8ff06218:	8e650008 	lw	a1,8(s3)
8ff0621c:	2442ffff 	addiu	v0,v0,-1
8ff06220:	00022040 	sll	a0,v0,0x1
8ff06224:	00a42021 	addu	a0,a1,a0
8ff06228:	84840000 	lh	a0,0(a0)
8ff0622c:	000228c0 	sll	a1,v0,0x3
8ff06230:	000410c0 	sll	v0,a0,0x3
8ff06234:	03c54021 	addu	t0,s8,a1
8ff06238:	02021021 	addu	v0,s0,v0
8ff0623c:	94450002 	lhu	a1,2(v0)
8ff06240:	8d060000 	lw	a2,0(t0)
8ff06244:	26e30001 	addiu	v1,s7,1
8ff06248:	00c53023 	subu	a2,a2,a1
8ff0624c:	0286102a 	slt	v0,s4,a2
8ff06250:	10400006 	beqz	v0,8ff0626c <Ivw021156235A784BA89796335AF580B+0x150>
8ff06254:	3077ffff 	andi	s7,v1,0xffff
8ff06258:	8d1e0004 	lw	s8,4(t0)
8ff0625c:	00c0a021 	move	s4,a2
8ff06260:	03c5f023 	subu	s8,s8,a1
8ff06264:	afbe001c 	sw	s8,28(sp)
8ff06268:	afa40018 	sw	a0,24(sp)
8ff0626c:	96420026 	lhu	v0,38(s2)
8ff06270:	02e2102b 	sltu	v0,s7,v0
8ff06274:	1440ffdb 	bnez	v0,8ff061e4 <Ivw021156235A784BA89796335AF580B+0xc8>
8ff06278:	2673000c 	addiu	s3,s3,12
8ff0627c:	8fa2001c 	lw	v0,28(sp)
8ff06280:	ae340020 	sw	s4,32(s1)
8ff06284:	ae220024 	sw	v0,36(s1)
8ff06288:	8fa20018 	lw	v0,24(sp)
8ff0628c:	a6220028 	sh	v0,40(s1)
8ff06290:	9642002a 	lhu	v0,42(s2)
8ff06294:	10400014 	beqz	v0,8ff062e8 <Ivw021156235A784BA89796335AF580B+0x1cc>
8ff06298:	00000000 	nop
8ff0629c:	8e54001c 	lw	s4,28(s2)
8ff062a0:	00009821 	move	s3,zero
8ff062a4:	8e230018 	lw	v1,24(s1)
8ff062a8:	00131080 	sll	v0,s3,0x2
8ff062ac:	8e870004 	lw	a3,4(s4)
8ff062b0:	00621021 	addu	v0,v1,v0
8ff062b4:	8c450000 	lw	a1,0(v0)
8ff062b8:	02803021 	move	a2,s4
8ff062bc:	afb60010 	sw	s6,16(sp)
8ff062c0:	afb10014 	sw	s1,20(sp)
8ff062c4:	02402021 	move	a0,s2
8ff062c8:	0ffc17aa 	jal	8ff05ea8 <Ivw94DD4B42EB7648F29A6F95A1756DC>
8ff062cc:	02a73823 	subu	a3,s5,a3
8ff062d0:	26730001 	addiu	s3,s3,1
8ff062d4:	9642002a 	lhu	v0,42(s2)
8ff062d8:	3273ffff 	andi	s3,s3,0xffff
8ff062dc:	0262182b 	sltu	v1,s3,v0
8ff062e0:	1460fff0 	bnez	v1,8ff062a4 <Ivw021156235A784BA89796335AF580B+0x188>
8ff062e4:	2694000c 	addiu	s4,s4,12
8ff062e8:	9643002c 	lhu	v1,44(s2)
8ff062ec:	10600064 	beqz	v1,8ff06480 <Ivw021156235A784BA89796335AF580B+0x364>
8ff062f0:	0000c021 	move	t8,zero
8ff062f4:	8e540020 	lw	s4,32(s2)
8ff062f8:	00009821 	move	s3,zero
8ff062fc:	8e23001c 	lw	v1,28(s1)
8ff06300:	00131080 	sll	v0,s3,0x2
8ff06304:	8e870004 	lw	a3,4(s4)
8ff06308:	00621021 	addu	v0,v1,v0
8ff0630c:	8c450000 	lw	a1,0(v0)
8ff06310:	02803021 	move	a2,s4
8ff06314:	afb60010 	sw	s6,16(sp)
8ff06318:	afb10014 	sw	s1,20(sp)
8ff0631c:	02402021 	move	a0,s2
8ff06320:	0ffc17aa 	jal	8ff05ea8 <Ivw94DD4B42EB7648F29A6F95A1756DC>
8ff06324:	02a73823 	subu	a3,s5,a3
8ff06328:	26730001 	addiu	s3,s3,1
8ff0632c:	9658002c 	lhu	t8,44(s2)
8ff06330:	3273ffff 	andi	s3,s3,0xffff
8ff06334:	0278102b 	sltu	v0,s3,t8
8ff06338:	1440fff0 	bnez	v0,8ff062fc <Ivw021156235A784BA89796335AF580B+0x1e0>
8ff0633c:	2694000c 	addiu	s4,s4,12
8ff06340:	8e4e0018 	lw	t6,24(s2)
8ff06344:	8e2a0014 	lw	t2,20(s1)
8ff06348:	8dc30008 	lw	v1,8(t6)
8ff0634c:	9642002a 	lhu	v0,42(s2)
8ff06350:	84690000 	lh	t1,0(v1)
8ff06354:	8d440000 	lw	a0,0(t2)
8ff06358:	964f0028 	lhu	t7,40(s2)
8ff0635c:	000918c0 	sll	v1,t1,0x3
8ff06360:	02031821 	addu	v1,s0,v1
8ff06364:	94630002 	lhu	v1,2(v1)
8ff06368:	8c860000 	lw	a2,0(a0)
8ff0636c:	01e27821 	addu	t7,t7,v0
8ff06370:	01f8c021 	addu	t8,t7,t8
8ff06374:	17000050 	bnez	t8,8ff064b8 <Ivw021156235A784BA89796335AF580B+0x39c>
8ff06378:	00c33023 	subu	a2,a2,v1
8ff0637c:	ae260030 	sw	a2,48(s1)
8ff06380:	a6290034 	sh	t1,52(s1)
8ff06384:	8e4f0018 	lw	t7,24(s2)
8ff06388:	8d440000 	lw	a0,0(t2)
8ff0638c:	8de20008 	lw	v0,8(t7)
8ff06390:	96580028 	lhu	t8,40(s2)
8ff06394:	84480000 	lh	t0,0(v0)
8ff06398:	9643002a 	lhu	v1,42(s2)
8ff0639c:	000810c0 	sll	v0,t0,0x3
8ff063a0:	02021021 	addu	v0,s0,v0
8ff063a4:	94420002 	lhu	v0,2(v0)
8ff063a8:	8c840004 	lw	a0,4(a0)
8ff063ac:	0303c021 	addu	t8,t8,v1
8ff063b0:	13000021 	beqz	t8,8ff06438 <Ivw021156235A784BA89796335AF580B+0x31c>
8ff063b4:	00822023 	subu	a0,a0,v0
8ff063b8:	00007021 	move	t6,zero
8ff063bc:	000e1080 	sll	v0,t6,0x2
8ff063c0:	8deb0000 	lw	t3,0(t7)
8ff063c4:	01421021 	addu	v0,t2,v0
8ff063c8:	11600016 	beqz	t3,8ff06424 <Ivw021156235A784BA89796335AF580B+0x308>
8ff063cc:	8c4c0000 	lw	t4,0(v0)
8ff063d0:	8ded0008 	lw	t5,8(t7)
8ff063d4:	00001821 	move	v1,zero
8ff063d8:	00001021 	move	v0,zero
8ff063dc:	00032840 	sll	a1,v1,0x1
8ff063e0:	01a52821 	addu	a1,t5,a1
8ff063e4:	84a60000 	lh	a2,0(a1)
8ff063e8:	000318c0 	sll	v1,v1,0x3
8ff063ec:	000628c0 	sll	a1,a2,0x3
8ff063f0:	01831821 	addu	v1,t4,v1
8ff063f4:	02052821 	addu	a1,s0,a1
8ff063f8:	8c630004 	lw	v1,4(v1)
8ff063fc:	94a70002 	lhu	a3,2(a1)
8ff06400:	24420001 	addiu	v0,v0,1
8ff06404:	00673823 	subu	a3,v1,a3
8ff06408:	3042ffff 	andi	v0,v0,0xffff
8ff0640c:	0087182a 	slt	v1,a0,a3
8ff06410:	004b482b 	sltu	t1,v0,t3
8ff06414:	00e3200b 	movn	a0,a3,v1
8ff06418:	00c3400b 	movn	t0,a2,v1
8ff0641c:	1520ffef 	bnez	t1,8ff063dc <Ivw021156235A784BA89796335AF580B+0x2c0>
8ff06420:	00401821 	move	v1,v0
8ff06424:	25ce0001 	addiu	t6,t6,1
8ff06428:	31ceffff 	andi	t6,t6,0xffff
8ff0642c:	01d8102a 	slt	v0,t6,t8
8ff06430:	1440ffe2 	bnez	v0,8ff063bc <Ivw021156235A784BA89796335AF580B+0x2a0>
8ff06434:	25ef000c 	addiu	t7,t7,12
8ff06438:	8e220038 	lw	v0,56(s1)
8ff0643c:	a6280040 	sh	t0,64(s1)
8ff06440:	00821023 	subu	v0,a0,v0
8ff06444:	ae22003c 	sw	v0,60(s1)
8ff06448:	ae240038 	sw	a0,56(s1)
8ff0644c:	8fbf0044 	lw	ra,68(sp)
8ff06450:	8fbe0040 	lw	s8,64(sp)
8ff06454:	8fb7003c 	lw	s7,60(sp)
8ff06458:	8fb60038 	lw	s6,56(sp)
8ff0645c:	8fb50034 	lw	s5,52(sp)
8ff06460:	8fb40030 	lw	s4,48(sp)
8ff06464:	8fb3002c 	lw	s3,44(sp)
8ff06468:	8fb20028 	lw	s2,40(sp)
8ff0646c:	8fb10024 	lw	s1,36(sp)
8ff06470:	8fb00020 	lw	s0,32(sp)
8ff06474:	00001021 	move	v0,zero
8ff06478:	03e00008 	jr	ra
8ff0647c:	27bd0048 	addiu	sp,sp,72
8ff06480:	8e4e0018 	lw	t6,24(s2)
8ff06484:	8e2a0014 	lw	t2,20(s1)
8ff06488:	8dc30008 	lw	v1,8(t6)
8ff0648c:	8d440000 	lw	a0,0(t2)
8ff06490:	84690000 	lh	t1,0(v1)
8ff06494:	964f0028 	lhu	t7,40(s2)
8ff06498:	000918c0 	sll	v1,t1,0x3
8ff0649c:	02031821 	addu	v1,s0,v1
8ff064a0:	94630002 	lhu	v1,2(v1)
8ff064a4:	8c860000 	lw	a2,0(a0)
8ff064a8:	01e27821 	addu	t7,t7,v0
8ff064ac:	01f8c021 	addu	t8,t7,t8
8ff064b0:	1300ffb2 	beqz	t8,8ff0637c <Ivw021156235A784BA89796335AF580B+0x260>
8ff064b4:	00c33023 	subu	a2,a2,v1
8ff064b8:	00006821 	move	t5,zero
8ff064bc:	00001021 	move	v0,zero
8ff064c0:	000d1880 	sll	v1,t5,0x2
8ff064c4:	01431821 	addu	v1,t2,v1
8ff064c8:	01e2102a 	slt	v0,t7,v0
8ff064cc:	8c6b0000 	lw	t3,0(v1)
8ff064d0:	14400024 	bnez	v0,8ff06564 <Ivw021156235A784BA89796335AF580B+0x448>
8ff064d4:	8dc40000 	lw	a0,0(t6)
8ff064d8:	00001821 	move	v1,zero
8ff064dc:	0064282b 	sltu	a1,v1,a0
8ff064e0:	10a00014 	beqz	a1,8ff06534 <Ivw021156235A784BA89796335AF580B+0x418>
8ff064e4:	00000000 	nop
8ff064e8:	8dcc0008 	lw	t4,8(t6)
8ff064ec:	00032840 	sll	a1,v1,0x1
8ff064f0:	01852821 	addu	a1,t4,a1
8ff064f4:	84a70000 	lh	a3,0(a1)
8ff064f8:	000318c0 	sll	v1,v1,0x3
8ff064fc:	000728c0 	sll	a1,a3,0x3
8ff06500:	01631821 	addu	v1,t3,v1
8ff06504:	02052821 	addu	a1,s0,a1
8ff06508:	94a50002 	lhu	a1,2(a1)
8ff0650c:	8c680000 	lw	t0,0(v1)
8ff06510:	24420001 	addiu	v0,v0,1
8ff06514:	01054023 	subu	t0,t0,a1
8ff06518:	3042ffff 	andi	v0,v0,0xffff
8ff0651c:	00c8182a 	slt	v1,a2,t0
8ff06520:	0044282b 	sltu	a1,v0,a0
8ff06524:	0103300b 	movn	a2,t0,v1
8ff06528:	00e3480b 	movn	t1,a3,v1
8ff0652c:	14a0ffef 	bnez	a1,8ff064ec <Ivw021156235A784BA89796335AF580B+0x3d0>
8ff06530:	00401821 	move	v1,v0
8ff06534:	25ad0001 	addiu	t5,t5,1
8ff06538:	31adffff 	andi	t5,t5,0xffff
8ff0653c:	01b8182a 	slt	v1,t5,t8
8ff06540:	25ce000c 	addiu	t6,t6,12
8ff06544:	1060ff8d 	beqz	v1,8ff0637c <Ivw021156235A784BA89796335AF580B+0x260>
8ff06548:	01a01021 	move	v0,t5
8ff0654c:	000d1880 	sll	v1,t5,0x2
8ff06550:	01431821 	addu	v1,t2,v1
8ff06554:	01e2102a 	slt	v0,t7,v0
8ff06558:	8c6b0000 	lw	t3,0(v1)
8ff0655c:	1040ffde 	beqz	v0,8ff064d8 <Ivw021156235A784BA89796335AF580B+0x3bc>
8ff06560:	8dc40000 	lw	a0,0(t6)
8ff06564:	2482ffff 	addiu	v0,a0,-1
8ff06568:	3042ffff 	andi	v0,v0,0xffff
8ff0656c:	1000ffdb 	b	8ff064dc <Ivw021156235A784BA89796335AF580B+0x3c0>
8ff06570:	00401821 	move	v1,v0
8ff06574:	1000ff01 	b	8ff0617c <Ivw021156235A784BA89796335AF580B+0x60>
8ff06578:	8cbe0024 	lw	s8,36(a1)

8ff0657c <IvwEAFF272FA3D149A1842D98E4CF87E>:
8ff0657c:	8c890050 	lw	t1,80(a0)
8ff06580:	8c8a0048 	lw	t2,72(a0)
8ff06584:	01201821 	move	v1,t1
8ff06588:	254a0280 	addiu	t2,t2,640
8ff0658c:	00001021 	move	v0,zero
8ff06590:	10000004 	b	8ff065a4 <IvwEAFF272FA3D149A1842D98E4CF87E+0x28>
8ff06594:	240800c3 	li	t0,195
8ff06598:	00c01021 	move	v0,a2
8ff0659c:	10c80034 	beq	a2,t0,8ff06670 <IvwEAFF272FA3D149A1842D98E4CF87E+0xf4>
8ff065a0:	24630002 	addiu	v1,v1,2
8ff065a4:	24450001 	addiu	a1,v0,1
8ff065a8:	94670000 	lhu	a3,0(v1)
8ff065ac:	00053400 	sll	a2,a1,0x10
8ff065b0:	10e0fff9 	beqz	a3,8ff06598 <IvwEAFF272FA3D149A1842D98E4CF87E+0x1c>
8ff065b4:	00063403 	sra	a2,a2,0x10
8ff065b8:	244700b0 	addiu	a3,v0,176
8ff065bc:	00064023 	negu	t0,a2
8ff065c0:	28eb00c4 	slti	t3,a3,196
8ff065c4:	240600c3 	li	a2,195
8ff065c8:	00cb380a 	movz	a3,a2,t3
8ff065cc:	00084140 	sll	t0,t0,0x5
8ff065d0:	00073c00 	sll	a3,a3,0x10
8ff065d4:	25080020 	addiu	t0,t0,32
8ff065d8:	00073c03 	sra	a3,a3,0x10
8ff065dc:	010a4021 	addu	t0,t0,t2
8ff065e0:	0047302a 	slt	a2,v0,a3
8ff065e4:	10c0001c 	beqz	a2,8ff06658 <IvwEAFF272FA3D149A1842D98E4CF87E+0xdc>
8ff065e8:	ac880048 	sw	t0,72(a0)
8ff065ec:	94630000 	lhu	v1,0(v1)
8ff065f0:	94880054 	lhu	t0,84(a0)
8ff065f4:	0068302b 	sltu	a2,v1,t0
8ff065f8:	14c00009 	bnez	a2,8ff06620 <IvwEAFF272FA3D149A1842D98E4CF87E+0xa4>
8ff065fc:	00021023 	negu	v0,v0
8ff06600:	10000017 	b	8ff06660 <IvwEAFF272FA3D149A1842D98E4CF87E+0xe4>
8ff06604:	00021140 	sll	v0,v0,0x5
8ff06608:	94c60000 	lhu	a2,0(a2)
8ff0660c:	00661821 	addu	v1,v1,a2
8ff06610:	3063ffff 	andi	v1,v1,0xffff
8ff06614:	0068302b 	sltu	a2,v1,t0
8ff06618:	10c0000f 	beqz	a2,8ff06658 <IvwEAFF272FA3D149A1842D98E4CF87E+0xdc>
8ff0661c:	24450001 	addiu	a1,v0,1
8ff06620:	00051400 	sll	v0,a1,0x10
8ff06624:	00021403 	sra	v0,v0,0x10
8ff06628:	00022840 	sll	a1,v0,0x1
8ff0662c:	01253021 	addu	a2,t1,a1
8ff06630:	0047282a 	slt	a1,v0,a3
8ff06634:	14a0fff4 	bnez	a1,8ff06608 <IvwEAFF272FA3D149A1842D98E4CF87E+0x8c>
8ff06638:	00000000 	nop
8ff0663c:	240300c3 	li	v1,195
8ff06640:	14430006 	bne	v0,v1,8ff0665c <IvwEAFF272FA3D149A1842D98E4CF87E+0xe0>
8ff06644:	00021023 	negu	v0,v0
8ff06648:	2402e7e0 	li	v0,-6176
8ff0664c:	01425021 	addu	t2,t2,v0
8ff06650:	03e00008 	jr	ra
8ff06654:	ac8a004c 	sw	t2,76(a0)
8ff06658:	00021023 	negu	v0,v0
8ff0665c:	00021140 	sll	v0,v0,0x5
8ff06660:	24420020 	addiu	v0,v0,32
8ff06664:	01425021 	addu	t2,t2,v0
8ff06668:	03e00008 	jr	ra
8ff0666c:	ac8a004c 	sw	t2,76(a0)
8ff06670:	3c028800 	lui	v0,0x8800
8ff06674:	03e00008 	jr	ra
8ff06678:	ac82004c 	sw	v0,76(a0)

8ff0667c <IvwCCC1A45DB2A74B96A92DD89E87CAB>:
8ff0667c:	27bdffd0 	addiu	sp,sp,-48
8ff06680:	afbf002c 	sw	ra,44(sp)
8ff06684:	afb30028 	sw	s3,40(sp)
8ff06688:	afb20024 	sw	s2,36(sp)
8ff0668c:	afb10020 	sw	s1,32(sp)
8ff06690:	afb0001c 	sw	s0,28(sp)
8ff06694:	8c830000 	lw	v1,0(a0)
8ff06698:	8c820038 	lw	v0,56(a0)
8ff0669c:	24630001 	addiu	v1,v1,1
8ff066a0:	24420001 	addiu	v0,v0,1
8ff066a4:	00808021 	move	s0,a0
8ff066a8:	ac830000 	sw	v1,0(a0)
8ff066ac:	ac820038 	sw	v0,56(a0)
8ff066b0:	00a09021 	move	s2,a1
8ff066b4:	afa60010 	sw	a2,16(sp)
8ff066b8:	afa70014 	sw	a3,20(sp)
8ff066bc:	0ffc12ac 	jal	8ff04ab0 <Ivw6F3AC527286E4ACE8A6700C043241>
8ff066c0:	8fb30040 	lw	s3,64(sp)
8ff066c4:	8e040088 	lw	a0,136(s0)
8ff066c8:	0ffc19d0 	jal	8ff06740 <Ivw6F3AC527286E4ACE8A9D00C043242>
8ff066cc:	24050186 	li	a1,390
8ff066d0:	96050032 	lhu	a1,50(s0)
8ff066d4:	8e0400e0 	lw	a0,224(s0)
8ff066d8:	26110038 	addiu	s1,s0,56
8ff066dc:	0ffc19d0 	jal	8ff06740 <Ivw6F3AC527286E4ACE8A9D00C043242>
8ff066e0:	00052840 	sll	a1,a1,0x1
8ff066e4:	02002021 	move	a0,s0
8ff066e8:	0ffc1847 	jal	8ff0611c <Ivw021156235A784BA89796335AF580B>
8ff066ec:	02202821 	move	a1,s1
8ff066f0:	02202821 	move	a1,s1
8ff066f4:	0ffc1760 	jal	8ff05d80 <Ivw49F0CE68AF0346218FB4F4AD8A121>
8ff066f8:	02002021 	move	a0,s0
8ff066fc:	0ffc195f 	jal	8ff0657c <IvwEAFF272FA3D149A1842D98E4CF87E>
8ff06700:	02202021 	move	a0,s1
8ff06704:	afb30040 	sw	s3,64(sp)
8ff06708:	8fa60010 	lw	a2,16(sp)
8ff0670c:	8fa70014 	lw	a3,20(sp)
8ff06710:	8fbf002c 	lw	ra,44(sp)
8ff06714:	8fb30028 	lw	s3,40(sp)
8ff06718:	8fb10020 	lw	s1,32(sp)
8ff0671c:	02002021 	move	a0,s0
8ff06720:	02402821 	move	a1,s2
8ff06724:	8fb0001c 	lw	s0,28(sp)
8ff06728:	8fb20024 	lw	s2,36(sp)
8ff0672c:	0bfc137c 	j	8ff04df0 <Ivw7AD047857C3441B28BDC3CCC479D7>
8ff06730:	27bd0030 	addiu	sp,sp,48
	...

8ff06740 <Ivw6F3AC527286E4ACE8A9D00C043242>:
8ff06740:	10a00005 	beqz	a1,8ff06758 <Ivw6F3AC527286E4ACE8A9D00C043242+0x18>
8ff06744:	00000000 	nop
8ff06748:	24a5fffe 	addiu	a1,a1,-2
8ff0674c:	a4800000 	sh	zero,0(a0)
8ff06750:	14a0fffd 	bnez	a1,8ff06748 <Ivw6F3AC527286E4ACE8A9D00C043242+0x8>
8ff06754:	24840002 	addiu	a0,a0,2
8ff06758:	03e00008 	jr	ra
8ff0675c:	00000000 	nop

8ff06760 <Ivw138EB59E9E47409CA505802FBDF80>:
8ff06760:	10c00007 	beqz	a2,8ff06780 <Ivw138EB59E9E47409CA505802FBDF80+0x20>
8ff06764:	00000000 	nop
8ff06768:	84a20000 	lh	v0,0(a1)
8ff0676c:	24c6fffe 	addiu	a2,a2,-2
8ff06770:	a4820000 	sh	v0,0(a0)
8ff06774:	24a50002 	addiu	a1,a1,2
8ff06778:	14c0fffb 	bnez	a2,8ff06768 <Ivw138EB59E9E47409CA505802FBDF80+0x8>
8ff0677c:	24840002 	addiu	a0,a0,2
8ff06780:	03e00008 	jr	ra
8ff06784:	00000000 	nop

8ff06788 <ivwMemComp>:
8ff06788:	10c00016 	beqz	a2,8ff067e4 <ivwMemComp+0x5c>
8ff0678c:	24c8ffff 	addiu	t0,a2,-1
8ff06790:	90830000 	lbu	v1,0(a0)
8ff06794:	90a20000 	lbu	v0,0(a1)
8ff06798:	0043302b 	sltu	a2,v0,v1
8ff0679c:	14c00013 	bnez	a2,8ff067ec <ivwMemComp+0x64>
8ff067a0:	00000000 	nop
8ff067a4:	0062102b 	sltu	v0,v1,v0
8ff067a8:	1040000c 	beqz	v0,8ff067dc <ivwMemComp+0x54>
8ff067ac:	24840001 	addiu	a0,a0,1
8ff067b0:	2484ffff 	addiu	a0,a0,-1
8ff067b4:	03e00008 	jr	ra
8ff067b8:	2402ffff 	li	v0,-1
8ff067bc:	90860000 	lbu	a2,0(a0)
8ff067c0:	90a30000 	lbu	v1,0(a1)
8ff067c4:	24420001 	addiu	v0,v0,1
8ff067c8:	0066382b 	sltu	a3,v1,a2
8ff067cc:	14e00007 	bnez	a3,8ff067ec <ivwMemComp+0x64>
8ff067d0:	00c3182b 	sltu	v1,a2,v1
8ff067d4:	14600007 	bnez	v1,8ff067f4 <ivwMemComp+0x6c>
8ff067d8:	24840001 	addiu	a0,a0,1
8ff067dc:	1448fff7 	bne	v0,t0,8ff067bc <ivwMemComp+0x34>
8ff067e0:	24a50001 	addiu	a1,a1,1
8ff067e4:	03e00008 	jr	ra
8ff067e8:	00001021 	move	v0,zero
8ff067ec:	03e00008 	jr	ra
8ff067f0:	24020001 	li	v0,1
8ff067f4:	2402ffff 	li	v0,-1
8ff067f8:	03e00008 	jr	ra
8ff067fc:	00000000 	nop

8ff06800 <Ivw2702C1573CA101486161704102408A5E3>:
8ff06800:	10800014 	beqz	a0,8ff06854 <Ivw2702C1573CA101486161704102408A5E3+0x54>
8ff06804:	00000000 	nop
8ff06808:	2402ffff 	li	v0,-1
8ff0680c:	1082000f 	beq	a0,v0,8ff0684c <Ivw2702C1573CA101486161704102408A5E3+0x4c>
8ff06810:	28830000 	slti	v1,a0,0
8ff06814:	00041027 	nor	v0,zero,a0
8ff06818:	0043200b 	movn	a0,v0,v1
8ff0681c:	3c024000 	lui	v0,0x4000
8ff06820:	0082102a 	slt	v0,a0,v0
8ff06824:	1040000b 	beqz	v0,8ff06854 <Ivw2702C1573CA101486161704102408A5E3+0x54>
8ff06828:	3c054000 	lui	a1,0x4000
8ff0682c:	00001021 	move	v0,zero
8ff06830:	00042040 	sll	a0,a0,0x1
8ff06834:	24420001 	addiu	v0,v0,1
8ff06838:	0085182a 	slt	v1,a0,a1
8ff0683c:	1460fffc 	bnez	v1,8ff06830 <Ivw2702C1573CA101486161704102408A5E3+0x30>
8ff06840:	3042ffff 	andi	v0,v0,0xffff
8ff06844:	03e00008 	jr	ra
8ff06848:	00000000 	nop
8ff0684c:	03e00008 	jr	ra
8ff06850:	2402001f 	li	v0,31
8ff06854:	03e00008 	jr	ra
8ff06858:	00001021 	move	v0,zero

8ff0685c <Ivw26983DA03761D4E6EA1BE30A1B0E4FDA8>:
8ff0685c:	3c02ffff 	lui	v0,0xffff
8ff06860:	00821024 	and	v0,a0,v0
8ff06864:	00052c00 	sll	a1,a1,0x10
8ff06868:	00052c03 	sra	a1,a1,0x10
8ff0686c:	14400005 	bnez	v0,8ff06884 <Ivw26983DA03761D4E6EA1BE30A1B0E4FDA8+0x28>
8ff06870:	34840001 	ori	a0,a0,0x1
8ff06874:	24a50010 	addiu	a1,a1,16
8ff06878:	00052c00 	sll	a1,a1,0x10
8ff0687c:	00042400 	sll	a0,a0,0x10
8ff06880:	00052c03 	sra	a1,a1,0x10
8ff06884:	3c02ff00 	lui	v0,0xff00
8ff06888:	00821024 	and	v0,a0,v0
8ff0688c:	14400005 	bnez	v0,8ff068a4 <Ivw26983DA03761D4E6EA1BE30A1B0E4FDA8+0x48>
8ff06890:	3c02f000 	lui	v0,0xf000
8ff06894:	24a50008 	addiu	a1,a1,8
8ff06898:	00052c00 	sll	a1,a1,0x10
8ff0689c:	00042200 	sll	a0,a0,0x8
8ff068a0:	00052c03 	sra	a1,a1,0x10
8ff068a4:	00821024 	and	v0,a0,v0
8ff068a8:	14400005 	bnez	v0,8ff068c0 <Ivw26983DA03761D4E6EA1BE30A1B0E4FDA8+0x64>
8ff068ac:	3c02c000 	lui	v0,0xc000
8ff068b0:	24a50004 	addiu	a1,a1,4
8ff068b4:	00052c00 	sll	a1,a1,0x10
8ff068b8:	00042100 	sll	a0,a0,0x4
8ff068bc:	00052c03 	sra	a1,a1,0x10
8ff068c0:	00821024 	and	v0,a0,v0
8ff068c4:	14400005 	bnez	v0,8ff068dc <Ivw26983DA03761D4E6EA1BE30A1B0E4FDA8+0x80>
8ff068c8:	00000000 	nop
8ff068cc:	24a50002 	addiu	a1,a1,2
8ff068d0:	00052c00 	sll	a1,a1,0x10
8ff068d4:	00042080 	sll	a0,a0,0x2
8ff068d8:	00052c03 	sra	a1,a1,0x10
8ff068dc:	04800005 	bltz	a0,8ff068f4 <Ivw26983DA03761D4E6EA1BE30A1B0E4FDA8+0x98>
8ff068e0:	00000000 	nop
8ff068e4:	24a50001 	addiu	a1,a1,1
8ff068e8:	00052c00 	sll	a1,a1,0x10
8ff068ec:	00042040 	sll	a0,a0,0x1
8ff068f0:	00052c03 	sra	a1,a1,0x10
8ff068f4:	3c028000 	lui	v0,0x8000
8ff068f8:	00822021 	addu	a0,a0,v0
8ff068fc:	00042582 	srl	a0,a0,0x16
8ff06900:	3c028ff0 	lui	v0,0x8ff0
8ff06904:	244272a4 	addiu	v0,v0,29348
8ff06908:	00042040 	sll	a0,a0,0x1
8ff0690c:	00822021 	addu	a0,a0,v0
8ff06910:	94820000 	lhu	v0,0(a0)
8ff06914:	3c04ffff 	lui	a0,0xffff
8ff06918:	24844e8e 	addiu	a0,a0,20110
8ff0691c:	70a43002 	mul	a2,a1,a0
8ff06920:	3c030015 	lui	v1,0x15
8ff06924:	24637cce 	addiu	v1,v1,31950
8ff06928:	00c32821 	addu	a1,a2,v1
8ff0692c:	00451021 	addu	v0,v0,a1
8ff06930:	00021182 	srl	v0,v0,0x6
8ff06934:	00021400 	sll	v0,v0,0x10
8ff06938:	03e00008 	jr	ra
8ff0693c:	00021403 	sra	v0,v0,0x10

8ff06940 <Ivw0873AEAB2019445EA5D4EBE39BE96>:
8ff06940:	00052842 	srl	a1,a1,0x1
8ff06944:	10a00013 	beqz	a1,8ff06994 <Ivw0873AEAB2019445EA5D4EBE39BE96+0x54>
8ff06948:	00054040 	sll	t0,a1,0x1
8ff0694c:	8ce20000 	lw	v0,0(a3)
8ff06950:	00884021 	addu	t0,a0,t0
8ff06954:	84850000 	lh	a1,0(a0)
8ff06958:	24430001 	addiu	v1,v0,1
8ff0695c:	70a32802 	mul	a1,a1,v1
8ff06960:	3042000f 	andi	v0,v0,0xf
8ff06964:	8cc30000 	lw	v1,0(a2)
8ff06968:	00451004 	sllv	v0,a1,v0
8ff0696c:	00431021 	addu	v0,v0,v1
8ff06970:	acc20000 	sw	v0,0(a2)
8ff06974:	84830000 	lh	v1,0(a0)
8ff06978:	24840002 	addiu	a0,a0,2
8ff0697c:	00431021 	addu	v0,v0,v1
8ff06980:	acc20000 	sw	v0,0(a2)
8ff06984:	8ce20000 	lw	v0,0(a3)
8ff06988:	24420001 	addiu	v0,v0,1
8ff0698c:	1488fff1 	bne	a0,t0,8ff06954 <Ivw0873AEAB2019445EA5D4EBE39BE96+0x14>
8ff06990:	ace20000 	sw	v0,0(a3)
8ff06994:	03e00008 	jr	ra
8ff06998:	00000000 	nop
8ff0699c:	00000000 	nop

8ff069a0 <Ivw24AFEE9E6B23D4568D38D2304C9C89072>:
8ff069a0:	27bdff98 	addiu	sp,sp,-104
8ff069a4:	24a50001 	addiu	a1,a1,1
8ff069a8:	3c198ff0 	lui	t9,0x8ff0
8ff069ac:	afbf0064 	sw	ra,100(sp)
8ff069b0:	afb40050 	sw	s4,80(sp)
8ff069b4:	afb3004c 	sw	s3,76(sp)
8ff069b8:	3c1f8ff0 	lui	ra,0x8ff0
8ff069bc:	00059c00 	sll	s3,a1,0x10
8ff069c0:	240e0007 	li	t6,7
8ff069c4:	24140004 	li	s4,4
8ff069c8:	afb50054 	sw	s5,84(sp)
8ff069cc:	afb20048 	sw	s2,72(sp)
8ff069d0:	afb10044 	sw	s1,68(sp)
8ff069d4:	afbe0060 	sw	s8,96(sp)
8ff069d8:	afb7005c 	sw	s7,92(sp)
8ff069dc:	afb60058 	sw	s6,88(sp)
8ff069e0:	afb00040 	sw	s0,64(sp)
8ff069e4:	afa60070 	sw	a2,112(sp)
8ff069e8:	00139c03 	sra	s3,s3,0x10
8ff069ec:	24910400 	addiu	s1,a0,1024
8ff069f0:	0000a821 	move	s5,zero
8ff069f4:	24120004 	li	s2,4
8ff069f8:	240f0002 	li	t7,2
8ff069fc:	27ff7d94 	addiu	ra,ra,32148
8ff06a00:	11d40052 	beq	t6,s4,8ff06b4c <Ivw24AFEE9E6B23D4568D38D2304C9C89072+0x1ac>
8ff06a04:	27397e94 	addiu	t9,t9,32404
8ff06a08:	1a60007c 	blez	s3,8ff06bfc <Ivw24AFEE9E6B23D4568D38D2304C9C89072+0x25c>
8ff06a0c:	00000000 	nop
8ff06a10:	2673ffff 	addiu	s3,s3,-1
8ff06a14:	00139c00 	sll	s3,s3,0x10
8ff06a18:	00139c03 	sra	s3,s3,0x10
8ff06a1c:	0000c021 	move	t8,zero
8ff06a20:	19e00040 	blez	t7,8ff06b24 <Ivw24AFEE9E6B23D4568D38D2304C9C89072+0x184>
8ff06a24:	00000000 	nop
8ff06a28:	00005021 	move	t2,zero
8ff06a2c:	00006821 	move	t5,zero
8ff06a30:	31ecffff 	andi	t4,t7,0xffff
8ff06a34:	324bffff 	andi	t3,s2,0xffff
8ff06a38:	01cd1004 	sllv	v0,t5,t6
8ff06a3c:	00021400 	sll	v0,v0,0x10
8ff06a40:	00021403 	sra	v0,v0,0x10
8ff06a44:	00021040 	sll	v0,v0,0x1
8ff06a48:	03e21821 	addu	v1,ra,v0
8ff06a4c:	03221021 	addu	v0,t9,v0
8ff06a50:	84670000 	lh	a3,0(v1)
8ff06a54:	84480000 	lh	t0,0(v0)
8ff06a58:	1300003e 	beqz	t8,8ff06b54 <Ivw24AFEE9E6B23D4568D38D2304C9C89072+0x1b4>
8ff06a5c:	31a3ffff 	andi	v1,t5,0xffff
8ff06a60:	006c2821 	addu	a1,v1,t4
8ff06a64:	00052c00 	sll	a1,a1,0x10
8ff06a68:	00052c03 	sra	a1,a1,0x10
8ff06a6c:	00052880 	sll	a1,a1,0x2
8ff06a70:	02252821 	addu	a1,s1,a1
8ff06a74:	84a60000 	lh	a2,0(a1)
8ff06a78:	84b60002 	lh	s6,2(a1)
8ff06a7c:	00031400 	sll	v0,v1,0x10
8ff06a80:	00c70018 	mult	a2,a3
8ff06a84:	00021403 	sra	v0,v0,0x10
8ff06a88:	72c80004 	msub	s6,t0
8ff06a8c:	00021080 	sll	v0,v0,0x2
8ff06a90:	02221021 	addu	v0,s1,v0
8ff06a94:	84570000 	lh	s7,0(v0)
8ff06a98:	00004812 	mflo	t1
8ff06a9c:	00c80018 	mult	a2,t0
8ff06aa0:	00094c02 	srl	t1,t1,0x10
8ff06aa4:	0017b843 	sra	s7,s7,0x1
8ff06aa8:	02e9b823 	subu	s7,s7,t1
8ff06aac:	72c70000 	madd	s6,a3
8ff06ab0:	a4b70000 	sh	s7,0(a1)
8ff06ab4:	84570000 	lh	s7,0(v0)
8ff06ab8:	845e0002 	lh	s8,2(v0)
8ff06abc:	00003012 	mflo	a2
8ff06ac0:	0017b843 	sra	s7,s7,0x1
8ff06ac4:	00063402 	srl	a2,a2,0x10
8ff06ac8:	001eb043 	sra	s6,s8,0x1
8ff06acc:	01374821 	addu	t1,t1,s7
8ff06ad0:	02c6b023 	subu	s6,s6,a2
8ff06ad4:	006b1821 	addu	v1,v1,t3
8ff06ad8:	a4490000 	sh	t1,0(v0)
8ff06adc:	3063ffff 	andi	v1,v1,0xffff
8ff06ae0:	a4b60002 	sh	s6,2(a1)
8ff06ae4:	84490002 	lh	t1,2(v0)
8ff06ae8:	01432821 	addu	a1,t2,v1
8ff06aec:	00052c00 	sll	a1,a1,0x10
8ff06af0:	00094843 	sra	t1,t1,0x1
8ff06af4:	00052c03 	sra	a1,a1,0x10
8ff06af8:	00c93021 	addu	a2,a2,t1
8ff06afc:	28a50100 	slti	a1,a1,256
8ff06b00:	14a0ffd7 	bnez	a1,8ff06a60 <Ivw24AFEE9E6B23D4568D38D2304C9C89072+0xc0>
8ff06b04:	a4460002 	sh	a2,2(v0)
8ff06b08:	25ad0001 	addiu	t5,t5,1
8ff06b0c:	000d1400 	sll	v0,t5,0x10
8ff06b10:	00021403 	sra	v0,v0,0x10
8ff06b14:	254affff 	addiu	t2,t2,-1
8ff06b18:	004f102a 	slt	v0,v0,t7
8ff06b1c:	1440ffc6 	bnez	v0,8ff06a38 <Ivw24AFEE9E6B23D4568D38D2304C9C89072+0x98>
8ff06b20:	314affff 	andi	t2,t2,0xffff
8ff06b24:	25ceffff 	addiu	t6,t6,-1
8ff06b28:	00121040 	sll	v0,s2,0x1
8ff06b2c:	000e7400 	sll	t6,t6,0x10
8ff06b30:	00021400 	sll	v0,v0,0x10
8ff06b34:	000e7403 	sra	t6,t6,0x10
8ff06b38:	00021403 	sra	v0,v0,0x10
8ff06b3c:	11c00034 	beqz	t6,8ff06c10 <Ivw24AFEE9E6B23D4568D38D2304C9C89072+0x270>
8ff06b40:	02407821 	move	t7,s2
8ff06b44:	15d4ffb0 	bne	t6,s4,8ff06a08 <Ivw24AFEE9E6B23D4568D38D2304C9C89072+0x68>
8ff06b48:	00409021 	move	s2,v0
8ff06b4c:	1000ffb4 	b	8ff06a20 <Ivw24AFEE9E6B23D4568D38D2304C9C89072+0x80>
8ff06b50:	0000c021 	move	t8,zero
8ff06b54:	006c2821 	addu	a1,v1,t4
8ff06b58:	00052c00 	sll	a1,a1,0x10
8ff06b5c:	00052c03 	sra	a1,a1,0x10
8ff06b60:	00052880 	sll	a1,a1,0x2
8ff06b64:	02252821 	addu	a1,s1,a1
8ff06b68:	84a60000 	lh	a2,0(a1)
8ff06b6c:	84b60002 	lh	s6,2(a1)
8ff06b70:	00c70018 	mult	a2,a3
8ff06b74:	00031400 	sll	v0,v1,0x10
8ff06b78:	72c80004 	msub	s6,t0
8ff06b7c:	00021403 	sra	v0,v0,0x10
8ff06b80:	00004812 	mflo	t1
8ff06b84:	00021080 	sll	v0,v0,0x2
8ff06b88:	00c80018 	mult	a2,t0
8ff06b8c:	02221021 	addu	v0,s1,v0
8ff06b90:	94570000 	lhu	s7,0(v0)
8ff06b94:	72c70000 	madd	s6,a3
8ff06b98:	00094840 	sll	t1,t1,0x1
8ff06b9c:	00094c02 	srl	t1,t1,0x10
8ff06ba0:	02e9b823 	subu	s7,s7,t1
8ff06ba4:	00003012 	mflo	a2
8ff06ba8:	a4b70000 	sh	s7,0(a1)
8ff06bac:	94560000 	lhu	s6,0(v0)
8ff06bb0:	94570002 	lhu	s7,2(v0)
8ff06bb4:	00063040 	sll	a2,a2,0x1
8ff06bb8:	00063402 	srl	a2,a2,0x10
8ff06bbc:	006b1821 	addu	v1,v1,t3
8ff06bc0:	01364821 	addu	t1,t1,s6
8ff06bc4:	3063ffff 	andi	v1,v1,0xffff
8ff06bc8:	02e6b023 	subu	s6,s7,a2
8ff06bcc:	a4490000 	sh	t1,0(v0)
8ff06bd0:	a4b60002 	sh	s6,2(a1)
8ff06bd4:	006a2821 	addu	a1,v1,t2
8ff06bd8:	94490002 	lhu	t1,2(v0)
8ff06bdc:	00052c00 	sll	a1,a1,0x10
8ff06be0:	00052c03 	sra	a1,a1,0x10
8ff06be4:	00c93021 	addu	a2,a2,t1
8ff06be8:	28a50100 	slti	a1,a1,256
8ff06bec:	14a0ffd9 	bnez	a1,8ff06b54 <Ivw24AFEE9E6B23D4568D38D2304C9C89072+0x1b4>
8ff06bf0:	a4460002 	sh	a2,2(v0)
8ff06bf4:	1000ffc5 	b	8ff06b0c <Ivw24AFEE9E6B23D4568D38D2304C9C89072+0x16c>
8ff06bf8:	25ad0001 	addiu	t5,t5,1
8ff06bfc:	26b50001 	addiu	s5,s5,1
8ff06c00:	0015ac00 	sll	s5,s5,0x10
8ff06c04:	0015ac03 	sra	s5,s5,0x10
8ff06c08:	1000ff85 	b	8ff06a20 <Ivw24AFEE9E6B23D4568D38D2304C9C89072+0x80>
8ff06c0c:	24180001 	li	t8,1
8ff06c10:	94820402 	lhu	v0,1026(a0)
8ff06c14:	94830400 	lhu	v1,1024(a0)
8ff06c18:	a4820802 	sh	v0,2050(a0)
8ff06c1c:	a4830800 	sh	v1,2048(a0)
8ff06c20:	02201021 	move	v0,s1
8ff06c24:	24840800 	addiu	a0,a0,2048
8ff06c28:	84870000 	lh	a3,0(a0)
8ff06c2c:	844a0002 	lh	t2,2(v0)
8ff06c30:	84830002 	lh	v1,2(a0)
8ff06c34:	844c0000 	lh	t4,0(v0)
8ff06c38:	87e50000 	lh	a1,0(ra)
8ff06c3c:	87e80100 	lh	t0,256(ra)
8ff06c40:	01434821 	addu	t1,t2,v1
8ff06c44:	00ec5823 	subu	t3,a3,t4
8ff06c48:	00094843 	sra	t1,t1,0x1
8ff06c4c:	000b5843 	sra	t3,t3,0x1
8ff06c50:	71253002 	mul	a2,t1,a1
8ff06c54:	71656802 	mul	t5,t3,a1
8ff06c58:	01431823 	subu	v1,t2,v1
8ff06c5c:	71682802 	mul	a1,t3,t0
8ff06c60:	71285002 	mul	t2,t1,t0
8ff06c64:	00c53023 	subu	a2,a2,a1
8ff06c68:	01873821 	addu	a3,t4,a3
8ff06c6c:	014d2821 	addu	a1,t2,t5
8ff06c70:	00063040 	sll	a2,a2,0x1
8ff06c74:	00073843 	sra	a3,a3,0x1
8ff06c78:	00052840 	sll	a1,a1,0x1
8ff06c7c:	00031843 	sra	v1,v1,0x1
8ff06c80:	00063402 	srl	a2,a2,0x10
8ff06c84:	30e7ffff 	andi	a3,a3,0xffff
8ff06c88:	00052c02 	srl	a1,a1,0x10
8ff06c8c:	3063ffff 	andi	v1,v1,0xffff
8ff06c90:	00c74821 	addu	t1,a2,a3
8ff06c94:	00a34021 	addu	t0,a1,v1
8ff06c98:	2484fffc 	addiu	a0,a0,-4
8ff06c9c:	00e63023 	subu	a2,a3,a2
8ff06ca0:	00a31823 	subu	v1,a1,v1
8ff06ca4:	27ff0002 	addiu	ra,ra,2
8ff06ca8:	a4490000 	sh	t1,0(v0)
8ff06cac:	a4480002 	sh	t0,2(v0)
8ff06cb0:	a4860004 	sh	a2,4(a0)
8ff06cb4:	a4830006 	sh	v1,6(a0)
8ff06cb8:	17f9ffdb 	bne	ra,t9,8ff06c28 <Ivw24AFEE9E6B23D4568D38D2304C9C89072+0x288>
8ff06cbc:	24420004 	addiu	v0,v0,4
8ff06cc0:	00159027 	nor	s2,zero,s5
8ff06cc4:	3252ffff 	andi	s2,s2,0xffff
8ff06cc8:	00129040 	sll	s2,s2,0x1
8ff06ccc:	00129400 	sll	s2,s2,0x10
8ff06cd0:	27b30010 	addiu	s3,sp,16
8ff06cd4:	3c158ff1 	lui	s5,0x8ff1
8ff06cd8:	00129403 	sra	s2,s2,0x10
8ff06cdc:	27b40040 	addiu	s4,sp,64
8ff06ce0:	0260b821 	move	s7,s3
8ff06ce4:	0000b021 	move	s6,zero
8ff06ce8:	26b58094 	addiu	s5,s5,-32620
8ff06cec:	26c20001 	addiu	v0,s6,1
8ff06cf0:	00021400 	sll	v0,v0,0x10
8ff06cf4:	00021403 	sra	v0,v0,0x10
8ff06cf8:	00021040 	sll	v0,v0,0x1
8ff06cfc:	02a21021 	addu	v0,s5,v0
8ff06d00:	00161840 	sll	v1,s6,0x1
8ff06d04:	84490000 	lh	t1,0(v0)
8ff06d08:	26c20002 	addiu	v0,s6,2
8ff06d0c:	02a31821 	addu	v1,s5,v1
8ff06d10:	00021400 	sll	v0,v0,0x10
8ff06d14:	84630000 	lh	v1,0(v1)
8ff06d18:	19200058 	blez	t1,8ff06e7c <Ivw24AFEE9E6B23D4568D38D2304C9C89072+0x4dc>
8ff06d1c:	00021403 	sra	v0,v0,0x10
8ff06d20:	01364021 	addu	t0,t1,s6
8ff06d24:	25080002 	addiu	t0,t0,2
8ff06d28:	00031880 	sll	v1,v1,0x2
8ff06d2c:	00084400 	sll	t0,t0,0x10
8ff06d30:	02231821 	addu	v1,s1,v1
8ff06d34:	00084403 	sra	t0,t0,0x10
8ff06d38:	00002021 	move	a0,zero
8ff06d3c:	84660002 	lh	a2,2(v1)
8ff06d40:	84670000 	lh	a3,0(v1)
8ff06d44:	00c60018 	mult	a2,a2
8ff06d48:	00022840 	sll	a1,v0,0x1
8ff06d4c:	70e70000 	madd	a3,a3
8ff06d50:	02a52821 	addu	a1,s5,a1
8ff06d54:	00003812 	mflo	a3
8ff06d58:	84a60000 	lh	a2,0(a1)
8ff06d5c:	30e5ffff 	andi	a1,a3,0xffff
8ff06d60:	00073c03 	sra	a3,a3,0x10
8ff06d64:	70a62802 	mul	a1,a1,a2
8ff06d68:	70c73002 	mul	a2,a2,a3
8ff06d6c:	24420001 	addiu	v0,v0,1
8ff06d70:	00052bc3 	sra	a1,a1,0xf
8ff06d74:	00063040 	sll	a2,a2,0x1
8ff06d78:	00021400 	sll	v0,v0,0x10
8ff06d7c:	00a63021 	addu	a2,a1,a2
8ff06d80:	00021403 	sra	v0,v0,0x10
8ff06d84:	00862021 	addu	a0,a0,a2
8ff06d88:	1448ffec 	bne	v0,t0,8ff06d3c <Ivw24AFEE9E6B23D4568D38D2304C9C89072+0x39c>
8ff06d8c:	24630004 	addiu	v1,v1,4
8ff06d90:	0136b021 	addu	s6,t1,s6
8ff06d94:	26d60002 	addiu	s6,s6,2
8ff06d98:	0016b400 	sll	s6,s6,0x10
8ff06d9c:	0016b403 	sra	s6,s6,0x10
8ff06da0:	0ffc1a17 	jal	8ff0685c <Ivw26983DA03761D4E6EA1BE30A1B0E4FDA8>
8ff06da4:	02402821 	move	a1,s2
8ff06da8:	a6e20000 	sh	v0,0(s7)
8ff06dac:	26f70002 	addiu	s7,s7,2
8ff06db0:	16f4ffcf 	bne	s7,s4,8ff06cf0 <Ivw24AFEE9E6B23D4568D38D2304C9C89072+0x350>
8ff06db4:	26c20001 	addiu	v0,s6,1
8ff06db8:	3c058ff0 	lui	a1,0x8ff0
8ff06dbc:	24a576a4 	addiu	a1,a1,30372
8ff06dc0:	8fa70070 	lw	a3,112(sp)
8ff06dc4:	24a80240 	addiu	t0,a1,576
8ff06dc8:	24060030 	li	a2,48
8ff06dcc:	00001021 	move	v0,zero
8ff06dd0:	00000013 	mtlo	zero
8ff06dd4:	27a30010 	addiu	v1,sp,16
8ff06dd8:	00622021 	addu	a0,v1,v0
8ff06ddc:	00a21821 	addu	v1,a1,v0
8ff06de0:	84840000 	lh	a0,0(a0)
8ff06de4:	84630000 	lh	v1,0(v1)
8ff06de8:	24420002 	addiu	v0,v0,2
8ff06dec:	1446fff9 	bne	v0,a2,8ff06dd4 <Ivw24AFEE9E6B23D4568D38D2304C9C89072+0x434>
8ff06df0:	70830000 	madd	a0,v1
8ff06df4:	00005012 	mflo	t2
8ff06df8:	24a50030 	addiu	a1,a1,48
8ff06dfc:	000a1443 	sra	v0,t2,0x11
8ff06e00:	a4e20000 	sh	v0,0(a3)
8ff06e04:	14a8fff1 	bne	a1,t0,8ff06dcc <Ivw24AFEE9E6B23D4568D38D2304C9C89072+0x42c>
8ff06e08:	24e70002 	addiu	a3,a3,2
8ff06e0c:	00001021 	move	v0,zero
8ff06e10:	86630000 	lh	v1,0(s3)
8ff06e14:	26730002 	addiu	s3,s3,2
8ff06e18:	1674fffd 	bne	s3,s4,8ff06e10 <Ivw24AFEE9E6B23D4568D38D2304C9C89072+0x470>
8ff06e1c:	00431021 	addu	v0,v0,v1
8ff06e20:	240324f3 	li	v1,9459
8ff06e24:	3044ffff 	andi	a0,v0,0xffff
8ff06e28:	00021403 	sra	v0,v0,0x10
8ff06e2c:	70832002 	mul	a0,a0,v1
8ff06e30:	70431002 	mul	v0,v0,v1
8ff06e34:	000423c3 	sra	a0,a0,0xf
8ff06e38:	00021040 	sll	v0,v0,0x1
8ff06e3c:	8fa30070 	lw	v1,112(sp)
8ff06e40:	00821021 	addu	v0,a0,v0
8ff06e44:	00021103 	sra	v0,v0,0x4
8ff06e48:	a4620018 	sh	v0,24(v1)
8ff06e4c:	8fbf0064 	lw	ra,100(sp)
8ff06e50:	8fbe0060 	lw	s8,96(sp)
8ff06e54:	8fb7005c 	lw	s7,92(sp)
8ff06e58:	8fb60058 	lw	s6,88(sp)
8ff06e5c:	8fb50054 	lw	s5,84(sp)
8ff06e60:	8fb40050 	lw	s4,80(sp)
8ff06e64:	8fb3004c 	lw	s3,76(sp)
8ff06e68:	8fb20048 	lw	s2,72(sp)
8ff06e6c:	8fb10044 	lw	s1,68(sp)
8ff06e70:	8fb00040 	lw	s0,64(sp)
8ff06e74:	03e00008 	jr	ra
8ff06e78:	27bd0068 	addiu	sp,sp,104
8ff06e7c:	0040b021 	move	s6,v0
8ff06e80:	1000ffc7 	b	8ff06da0 <Ivw24AFEE9E6B23D4568D38D2304C9C89072+0x400>
8ff06e84:	00002021 	move	a0,zero

8ff06e88 <Ivw22E87D039917F40EF0FA2C2447EEA46CC>:
8ff06e88:	27bdffd0 	addiu	sp,sp,-48
8ff06e8c:	afb2001c 	sw	s2,28(sp)
8ff06e90:	24920400 	addiu	s2,a0,1024
8ff06e94:	afb40024 	sw	s4,36(sp)
8ff06e98:	afb10018 	sw	s1,24(sp)
8ff06e9c:	afb00014 	sw	s0,20(sp)
8ff06ea0:	afbf002c 	sw	ra,44(sp)
8ff06ea4:	afb50028 	sw	s5,40(sp)
8ff06ea8:	afb30020 	sw	s3,32(sp)
8ff06eac:	00808821 	move	s1,a0
8ff06eb0:	00a08021 	move	s0,a1
8ff06eb4:	02402021 	move	a0,s2
8ff06eb8:	24050404 	li	a1,1028
8ff06ebc:	00e0a021 	move	s4,a3
8ff06ec0:	0ffc19d0 	jal	8ff06740 <Ivw6F3AC527286E4ACE8A9D00C043242>
8ff06ec4:	963309bc 	lhu	s3,2492(s1)
8ff06ec8:	00001021 	move	v0,zero
8ff06ecc:	00001821 	move	v1,zero
8ff06ed0:	24050190 	li	a1,400
8ff06ed4:	00532021 	addu	a0,v0,s3
8ff06ed8:	308401ff 	andi	a0,a0,0x1ff
8ff06edc:	00042040 	sll	a0,a0,0x1
8ff06ee0:	02242021 	addu	a0,s1,a0
8ff06ee4:	84840000 	lh	a0,0(a0)
8ff06ee8:	24420001 	addiu	v0,v0,1
8ff06eec:	1445fff9 	bne	v0,a1,8ff06ed4 <Ivw22E87D039917F40EF0FA2C2447EEA46CC+0x4c>
8ff06ef0:	00641821 	addu	v1,v1,a0
8ff06ef4:	3c0d51eb 	lui	t5,0x51eb
8ff06ef8:	35ad851f 	ori	t5,t5,0x851f
8ff06efc:	006d0018 	mult	v1,t5
8ff06f00:	2662ffff 	addiu	v0,s3,-1
8ff06f04:	304201ff 	andi	v0,v0,0x1ff
8ff06f08:	00006810 	mfhi	t5
8ff06f0c:	00021040 	sll	v0,v0,0x1
8ff06f10:	02221021 	addu	v0,s1,v0
8ff06f14:	00031fc3 	sra	v1,v1,0x1f
8ff06f18:	84420000 	lh	v0,0(v0)
8ff06f1c:	000d69c3 	sra	t5,t5,0x7
8ff06f20:	01a36823 	subu	t5,t5,v1
8ff06f24:	3c0b8ff0 	lui	t3,0x8ff0
8ff06f28:	3c188ff0 	lui	t8,0x8ff0
8ff06f2c:	004d1823 	subu	v1,v0,t5
8ff06f30:	256b78e4 	addiu	t3,t3,30948
8ff06f34:	00001021 	move	v0,zero
8ff06f38:	34048000 	li	a0,0x8000
8ff06f3c:	00003821 	move	a3,zero
8ff06f40:	27187c04 	addiu	t8,t8,31748
8ff06f44:	266f0001 	addiu	t7,s3,1
8ff06f48:	10000040 	b	8ff0704c <Ivw22E87D039917F40EF0FA2C2447EEA46CC+0x1c4>
8ff06f4c:	240e0190 	li	t6,400
8ff06f50:	28c38001 	slti	v1,a2,-32767
8ff06f54:	34058000 	li	a1,0x8000
8ff06f58:	00c3280a 	movz	a1,a2,v1
8ff06f5c:	00021843 	sra	v1,v0,0x1
8ff06f60:	00031840 	sll	v1,v1,0x1
8ff06f64:	03031821 	addu	v1,t8,v1
8ff06f68:	94660000 	lhu	a2,0(v1)
8ff06f6c:	284c0100 	slti	t4,v0,256
8ff06f70:	00064880 	sll	t1,a2,0x2
8ff06f74:	02494821 	addu	t1,s2,t1
8ff06f78:	11800055 	beqz	t4,8ff070d0 <Ivw22E87D039917F40EF0FA2C2447EEA46CC+0x248>
8ff06f7c:	95390000 	lhu	t9,0(t1)
8ff06f80:	24c30001 	addiu	v1,a2,1
8ff06f84:	00b9c821 	addu	t9,a1,t9
8ff06f88:	00031880 	sll	v1,v1,0x2
8ff06f8c:	a5390000 	sh	t9,0(t1)
8ff06f90:	02431821 	addu	v1,s2,v1
8ff06f94:	94790000 	lhu	t9,0(v1)
8ff06f98:	014f5021 	addu	t2,t2,t7
8ff06f9c:	314a01ff 	andi	t2,t2,0x1ff
8ff06fa0:	00b92821 	addu	a1,a1,t9
8ff06fa4:	000a5040 	sll	t2,t2,0x1
8ff06fa8:	a4650000 	sh	a1,0(v1)
8ff06fac:	022a5021 	addu	t2,s1,t2
8ff06fb0:	85430000 	lh	v1,0(t2)
8ff06fb4:	0008c983 	sra	t9,t0,0x6
8ff06fb8:	006d1823 	subu	v1,v1,t5
8ff06fbc:	00685023 	subu	t2,v1,t0
8ff06fc0:	95650002 	lhu	a1,2(t3)
8ff06fc4:	000a5043 	sra	t2,t2,0x1
8ff06fc8:	01595021 	addu	t2,t2,t9
8ff06fcc:	70aa5002 	mul	t2,a1,t2
8ff06fd0:	71084002 	mul	t0,t0,t0
8ff06fd4:	29590000 	slti	t9,t2,0
8ff06fd8:	000a2823 	negu	a1,t2
8ff06fdc:	25080200 	addiu	t0,t0,512
8ff06fe0:	0159280a 	movz	a1,t2,t9
8ff06fe4:	00084283 	sra	t0,t0,0xa
8ff06fe8:	000a5403 	sra	t2,t2,0x10
8ff06fec:	00bfc825 	or	t9,a1,ra
8ff06ff0:	01154021 	addu	t0,t0,s5
8ff06ff4:	29457fff 	slti	a1,t2,32767
8ff06ff8:	00e83821 	addu	a3,a3,t0
8ff06ffc:	10a0005a 	beqz	a1,8ff07168 <Ivw22E87D039917F40EF0FA2C2447EEA46CC+0x2e0>
8ff07000:	00992025 	or	a0,a0,t9
8ff07004:	29488001 	slti	t0,t2,-32767
8ff07008:	34058000 	li	a1,0x8000
8ff0700c:	0148280a 	movz	a1,t2,t0
8ff07010:	11800032 	beqz	t4,8ff070dc <Ivw22E87D039917F40EF0FA2C2447EEA46CC+0x254>
8ff07014:	95280002 	lhu	t0,2(t1)
8ff07018:	24c60001 	addiu	a2,a2,1
8ff0701c:	00a84021 	addu	t0,a1,t0
8ff07020:	00063080 	sll	a2,a2,0x2
8ff07024:	a5280002 	sh	t0,2(t1)
8ff07028:	02463021 	addu	a2,s2,a2
8ff0702c:	94c80002 	lhu	t0,2(a2)
8ff07030:	24420002 	addiu	v0,v0,2
8ff07034:	00021400 	sll	v0,v0,0x10
8ff07038:	00a82821 	addu	a1,a1,t0
8ff0703c:	00021403 	sra	v0,v0,0x10
8ff07040:	a4c50002 	sh	a1,2(a2)
8ff07044:	104e0032 	beq	v0,t6,8ff07110 <Ivw22E87D039917F40EF0FA2C2447EEA46CC+0x288>
8ff07048:	256b0004 	addiu	t3,t3,4
8ff0704c:	304affff 	andi	t2,v0,0xffff
8ff07050:	01532821 	addu	a1,t2,s3
8ff07054:	30a501ff 	andi	a1,a1,0x1ff
8ff07058:	00052840 	sll	a1,a1,0x1
8ff0705c:	02252821 	addu	a1,s1,a1
8ff07060:	84a80000 	lh	t0,0(a1)
8ff07064:	00033183 	sra	a2,v1,0x6
8ff07068:	010d4023 	subu	t0,t0,t5
8ff0706c:	01034823 	subu	t1,t0,v1
8ff07070:	95650000 	lhu	a1,0(t3)
8ff07074:	00094843 	sra	t1,t1,0x1
8ff07078:	01264821 	addu	t1,t1,a2
8ff0707c:	70a94802 	mul	t1,a1,t1
8ff07080:	70631802 	mul	v1,v1,v1
8ff07084:	00093403 	sra	a2,t1,0x10
8ff07088:	293f0000 	slti	ra,t1,0
8ff0708c:	00096023 	negu	t4,t1
8ff07090:	24750200 	addiu	s5,v1,512
8ff07094:	019f480b 	movn	t1,t4,ra
8ff07098:	28c57fff 	slti	a1,a2,32767
8ff0709c:	0015aa83 	sra	s5,s5,0xa
8ff070a0:	14a0ffab 	bnez	a1,8ff06f50 <Ivw22E87D039917F40EF0FA2C2447EEA46CC+0xc8>
8ff070a4:	0120f821 	move	ra,t1
8ff070a8:	00021843 	sra	v1,v0,0x1
8ff070ac:	00031840 	sll	v1,v1,0x1
8ff070b0:	03031821 	addu	v1,t8,v1
8ff070b4:	94660000 	lhu	a2,0(v1)
8ff070b8:	284c0100 	slti	t4,v0,256
8ff070bc:	00064880 	sll	t1,a2,0x2
8ff070c0:	02494821 	addu	t1,s2,t1
8ff070c4:	24057fff 	li	a1,32767
8ff070c8:	1580ffad 	bnez	t4,8ff06f80 <Ivw22E87D039917F40EF0FA2C2447EEA46CC+0xf8>
8ff070cc:	95390000 	lhu	t9,0(t1)
8ff070d0:	24c3ffff 	addiu	v1,a2,-1
8ff070d4:	1000ffac 	b	8ff06f88 <Ivw22E87D039917F40EF0FA2C2447EEA46CC+0x100>
8ff070d8:	0325c823 	subu	t9,t9,a1
8ff070dc:	24c6ffff 	addiu	a2,a2,-1
8ff070e0:	01054023 	subu	t0,t0,a1
8ff070e4:	00063080 	sll	a2,a2,0x2
8ff070e8:	a5280002 	sh	t0,2(t1)
8ff070ec:	02463021 	addu	a2,s2,a2
8ff070f0:	94c80002 	lhu	t0,2(a2)
8ff070f4:	24420002 	addiu	v0,v0,2
8ff070f8:	00021400 	sll	v0,v0,0x10
8ff070fc:	00a82821 	addu	a1,a1,t0
8ff07100:	00021403 	sra	v0,v0,0x10
8ff07104:	a4c50002 	sh	a1,2(a2)
8ff07108:	144effd0 	bne	v0,t6,8ff0704c <Ivw22E87D039917F40EF0FA2C2447EEA46CC+0x1c4>
8ff0710c:	256b0004 	addiu	t3,t3,4
8ff07110:	12800003 	beqz	s4,8ff07120 <Ivw22E87D039917F40EF0FA2C2447EEA46CC+0x298>
8ff07114:	00000000 	nop
8ff07118:	24e70001 	addiu	a3,a3,1
8ff0711c:	ae870000 	sw	a3,0(s4)
8ff07120:	266200a0 	addiu	v0,s3,160
8ff07124:	304201ff 	andi	v0,v0,0x1ff
8ff07128:	0ffc1a00 	jal	8ff06800 <Ivw2702C1573CA101486161704102408A5E3>
8ff0712c:	a62209bc 	sh	v0,2492(s1)
8ff07130:	2442fffe 	addiu	v0,v0,-2
8ff07134:	8fbf002c 	lw	ra,44(sp)
8ff07138:	8fb50028 	lw	s5,40(sp)
8ff0713c:	8fb40024 	lw	s4,36(sp)
8ff07140:	8fb30020 	lw	s3,32(sp)
8ff07144:	8fb2001c 	lw	s2,28(sp)
8ff07148:	02202021 	move	a0,s1
8ff0714c:	00022c00 	sll	a1,v0,0x10
8ff07150:	8fb10018 	lw	s1,24(sp)
8ff07154:	02003021 	move	a2,s0
8ff07158:	8fb00014 	lw	s0,20(sp)
8ff0715c:	00052c03 	sra	a1,a1,0x10
8ff07160:	0bfc1a68 	j	8ff069a0 <Ivw24AFEE9E6B23D4568D38D2304C9C89072>
8ff07164:	27bd0030 	addiu	sp,sp,48
8ff07168:	1000ffa9 	b	8ff07010 <Ivw22E87D039917F40EF0FA2C2447EEA46CC+0x188>
8ff0716c:	24057fff 	li	a1,32767
反汇编 .data 节：

8ff07170 <_dma_channel>:
8ff07170:	00000005 	0x5

8ff07174 <tcu_channel>:
8ff07174:	00000005 	0x5
	...

8ff07180 <dma_channel>:
8ff07180:	00000005 	0x5
	...

8ff07190 <thr_table>:
8ff07190:	000003e8 	0x3e8
8ff07194:	00001388 	0x1388

8ff07198 <tri_cnt>:
8ff07198:	00000002 	srl	zero,zero,0x0
8ff0719c:	00000006 	srlv	zero,zero,zero

8ff071a0 <tcu_channel>:
8ff071a0:	00000002 	srl	zero,zero,0x0
	...
8ff071b0:	8ff02440 	lw	s0,9280(ra)
8ff071b4:	8ff02250 	lw	s0,8784(ra)
8ff071b8:	8ff02408 	lw	s0,9224(ra)
8ff071bc:	8ff023b8 	lw	s0,9144(ra)
8ff071c0:	8ff02368 	lw	s0,9064(ra)
8ff071c4:	8ff02330 	lw	s0,9008(ra)
8ff071c8:	8ff022dc 	lw	s0,8924(ra)
8ff071cc:	8ff022b4 	lw	s0,8884(ra)
8ff071d0:	8ff02280 	lw	s0,8832(ra)
	...

8ff071e0 <g_fLaddTab.2164>:
8ff071e0:	0000000b 	movn	zero,zero,zero
8ff071e4:	0000000a 	movz	zero,zero,zero
8ff071e8:	00000009 	jalr	zero,zero
8ff071ec:	00000008 	jr	zero
8ff071f0:	00000007 	srav	zero,zero,zero
8ff071f4:	00000007 	srav	zero,zero,zero
8ff071f8:	00000006 	srlv	zero,zero,zero
8ff071fc:	00000005 	0x5
8ff07200:	00000005 	0x5
8ff07204:	00000004 	sllv	zero,zero,zero
8ff07208:	00000004 	sllv	zero,zero,zero
8ff0720c:	00000003 	sra	zero,zero,0x0
8ff07210:	00000003 	sra	zero,zero,0x0
8ff07214:	00000003 	sra	zero,zero,0x0
8ff07218:	00000002 	srl	zero,zero,0x0
8ff0721c:	00000002 	srl	zero,zero,0x0
8ff07220:	00000002 	srl	zero,zero,0x0
8ff07224:	00000002 	srl	zero,zero,0x0
8ff07228:	00000002 	srl	zero,zero,0x0
8ff0722c:	00000001 	movf	zero,zero,$fcc0
8ff07230:	00000001 	movf	zero,zero,$fcc0
8ff07234:	00000001 	movf	zero,zero,$fcc0
8ff07238:	00000001 	movf	zero,zero,$fcc0
8ff0723c:	00000001 	movf	zero,zero,$fcc0
8ff07240:	00000001 	movf	zero,zero,$fcc0
8ff07244:	00000001 	movf	zero,zero,$fcc0
8ff07248:	00000001 	movf	zero,zero,$fcc0
8ff0724c:	00000001 	movf	zero,zero,$fcc0

8ff07250 <g_ps16CMNCoefMin>:
8ff07250:	e0c0e0c0 	sc	zero,-8000(a2)
8ff07254:	e0c0e0c0 	sc	zero,-8000(a2)
8ff07258:	e0c0e0c0 	sc	zero,-8000(a2)
8ff0725c:	e0c0e0c0 	sc	zero,-8000(a2)
8ff07260:	e0c0e0c0 	sc	zero,-8000(a2)
8ff07264:	e0c0e0c0 	sc	zero,-8000(a2)
8ff07268:	000007d0 	0x7d0

8ff0726c <g_ps16CMNCoefMax>:
8ff0726c:	1f401f40 	bgtz	k0,8ff0ef70 <save_tcsr+0x182c>
8ff07270:	1f401f40 	bgtz	k0,8ff0ef74 <save_tcsr+0x1830>
8ff07274:	1f401f40 	bgtz	k0,8ff0ef78 <save_tcsr+0x1834>
8ff07278:	1f401f40 	bgtz	k0,8ff0ef7c <save_tcsr+0x1838>
8ff0727c:	1f401f40 	bgtz	k0,8ff0ef80 <save_tcsr+0x183c>
8ff07280:	1f401f40 	bgtz	k0,8ff0ef84 <save_tcsr+0x1840>
8ff07284:	00002ee0 	0x2ee0

8ff07288 <g_ps16CMNCoef>:
8ff07288:	fad8ffc3 	sdc2	$24,-61(s6)
8ff0728c:	fb9300de 	sdc2	$19,222(gp)
8ff07290:	00a6014d 	break	0xa6,0x5
8ff07294:	ff09ff82 	sdc3	$9,-126(t8)
8ff07298:	ffa7ff82 	sdc3	$7,-126(sp)
8ff0729c:	000b000c 	syscall	0x2c00
8ff072a0:	00001cc3 	sra	v1,zero,0x13

8ff072a4 <Ivw27E189A73CA101486161704102408A5E3>:
8ff072a4:	00800000 	0x800000
8ff072a8:	017f0100 	0x17f0100
8ff072ac:	027d01fe 	0x27d01fe
8ff072b0:	037a02fc 	0x37a02fc
8ff072b4:	047603f8 	0x47603f8
8ff072b8:	057104f4 	bgezal	t3,8ff0868c <rtc_config+0x8>
8ff072bc:	066b05ee 	tltiu	s3,1518
8ff072c0:	076406e8 	0x76406e8
8ff072c4:	085d07e1 	j	81741f84 <interface-0xe7be07c>
8ff072c8:	095408d8 	j	85502360 <interface-0xa9fdca0>
8ff072cc:	0a4a09cf 	j	8928273c <interface-0x6c7d8c4>
8ff072d0:	0b400ac5 	j	8d002b14 <interface-0x2efd4ec>
8ff072d4:	0c340bba 	jal	80d02ee8 <interface-0xf1fd118>
8ff072d8:	0d280cae 	jal	84a032b8 <interface-0xb4fcd48>
8ff072dc:	0e1b0da1 	jal	886c3684 <interface-0x783c97c>
8ff072e0:	0f0d0e94 	jal	8c343a50 <interface-0x3bbc5b0>
8ff072e4:	0ffd0f85 	jal	8ff43e14 <wakeup_res+0x1be14>
8ff072e8:	10ee1076 	beq	a3,t6,8ff0b4c4 <pIvwObjBuf+0x2e04>
8ff072ec:	11dd1165 	beq	t6,sp,8ff0b884 <pIvwObjBuf+0x31c4>
8ff072f0:	12cb1254 	beq	s6,t3,8ff0bc44 <pIvwObjBuf+0x3584>
8ff072f4:	13b81342 	beq	sp,t8,8ff0c000 <pIvwObjBuf+0x3940>
8ff072f8:	14a5142f 	bne	a1,a1,8ff0c3b8 <pIvwObjBuf+0x3cf8>
8ff072fc:	1591151b 	bne	t4,s1,8ff0c76c <pIvwObjBuf+0x40ac>
8ff07300:	167c1606 	bne	s3,gp,8ff0cb1c <pIvwObjBuf+0x445c>
8ff07304:	176616f1 	bne	k1,a2,8ff0cecc <pIvwObjBuf+0x480c>
8ff07308:	184f17da 	0x184f17da
8ff0730c:	193718c3 	0x193718c3
8ff07310:	1a1f19ab 	0x1a1f19ab
8ff07314:	1b061a92 	0x1b061a92
8ff07318:	1bec1b79 	0x1bec1b79
8ff0731c:	1cd11c5e 	0x1cd11c5e
8ff07320:	1db51d43 	0x1db51d43
8ff07324:	1e991e27 	0x1e991e27
8ff07328:	1f7b1f0a 	0x1f7b1f0a
8ff0732c:	205d1fed 	addi	sp,v0,8173
8ff07330:	213f20ce 	addi	ra,t1,8398
8ff07334:	221f21af 	addi	ra,s0,8623
8ff07338:	22ff228f 	addi	ra,s7,8847
8ff0733c:	23de236e 	addi	s8,s8,9070
8ff07340:	24bc244d 	addiu	gp,a1,9293
8ff07344:	2599252b 	addiu	t9,t4,9515
8ff07348:	26762608 	addiu	s6,s3,9736
8ff0734c:	275226e4 	addiu	s2,k0,9956
8ff07350:	282d27c0 	slti	t5,at,10176
8ff07354:	2907289a 	slti	a3,t0,10394
8ff07358:	29e12974 	slti	at,t7,10612
8ff0735c:	2aba2a4e 	slti	k0,s5,10830
8ff07360:	2b932b26 	slti	s3,gp,11046
8ff07364:	2c6a2bfe 	sltiu	t2,v1,11262
8ff07368:	2d412cd6 	sltiu	at,t2,11478
8ff0736c:	2e172dac 	sltiu	s7,s0,11692
8ff07370:	2eed2e82 	sltiu	t5,s7,11906
8ff07374:	2fc12f57 	sltiu	at,s8,12119
8ff07378:	3095302c 	andi	s5,a0,0x302c
8ff0737c:	316930ff 	andi	t1,t3,0x30ff
8ff07380:	323c31d2 	andi	gp,s1,0x31d2
8ff07384:	330e32a5 	andi	t6,t8,0x32a5
8ff07388:	33df3376 	andi	ra,s8,0x3376
8ff0738c:	34b03447 	ori	s0,a1,0x3447
8ff07390:	35803518 	ori	zero,t4,0x3518
8ff07394:	364f35e8 	ori	t7,s2,0x35e8
8ff07398:	371e36b7 	ori	s8,t8,0x36b7
8ff0739c:	37ec3785 	ori	t4,ra,0x3785
8ff073a0:	38b93853 	xori	t9,a1,0x3853
8ff073a4:	39863920 	xori	a2,t4,0x3920
8ff073a8:	3a5239ec 	xori	s2,s2,0x39ec
8ff073ac:	3b1e3ab8 	xori	s8,t8,0x3ab8
8ff073b0:	3be93b83 	xori	t1,ra,0x3b83
8ff073b4:	3cb33c4e 	0x3cb33c4e
8ff073b8:	3d7d3d18 	0x3d7d3d18
8ff073bc:	3e463de1 	0x3e463de1
8ff073c0:	3f0e3eaa 	0x3f0e3eaa
8ff073c4:	3fd63f72 	0x3fd63f72
8ff073c8:	409d403a 	0x409d403a
8ff073cc:	41644101 	0x41644101
8ff073d0:	422a41c7 	c0	0x2a41c7
8ff073d4:	42ef428d 	c0	0xef428d
8ff073d8:	43b44352 	c0	0x1b44352
8ff073dc:	44784416 	0x44784416
8ff073e0:	453c44da 	0x453c44da
8ff073e4:	45ff459d 	0x45ff459d
8ff073e8:	46c14660 	c1	0xc14660
8ff073ec:	47834722 	c1	0x1834722
8ff073f0:	484547e4 	0x484547e4
8ff073f4:	490548a5 	0x490548a5
8ff073f8:	49c64966 	0x49c64966
8ff073fc:	4a854a25 	c2	0x854a25
8ff07400:	4b444ae5 	c2	0x1444ae5
8ff07404:	4c034ba4 	0x4c034ba4
8ff07408:	4cc14c62 	0x4cc14c62
8ff0740c:	4d7e4d1f 	0x4d7e4d1f
8ff07410:	4e3b4ddd 	c3	0x3b4ddd
8ff07414:	4ef74e99 	c3	0xf74e99
8ff07418:	4fb34f55 	c3	0x1b34f55
8ff0741c:	506e5011 	beql	v1,t6,8ff1b464 <save_tcsr+0xdd20>
8ff07420:	512950cc 	beql	t1,t1,8ff1b754 <save_tcsr+0xe010>
8ff07424:	51e35186 	beql	t7,v1,8ff1ba40 <save_tcsr+0xe2fc>
8ff07428:	529d5240 	beql	s4,sp,8ff1bd2c <save_tcsr+0xe5e8>
8ff0742c:	535652f9 	beql	k0,s6,8ff1c014 <save_tcsr+0xe8d0>
8ff07430:	540f53b2 	bnel	zero,t7,8ff1c2fc <save_tcsr+0xebb8>
8ff07434:	54c7546b 	bnel	a2,a3,8ff1c5e4 <save_tcsr+0xeea0>
8ff07438:	557e5523 	bnel	t3,s8,8ff1c8c8 <save_tcsr+0xf184>
8ff0743c:	563555da 	bnel	s1,s5,8ff1cba8 <save_tcsr+0xf464>
8ff07440:	56ec5691 	bnel	s7,t4,8ff1ce88 <save_tcsr+0xf744>
8ff07444:	57a25747 	bnel	sp,v0,8ff1d164 <save_tcsr+0xfa20>
8ff07448:	585757fd 	0x585757fd
8ff0744c:	590d58b2 	0x590d58b2
8ff07450:	59c15967 	0x59c15967
8ff07454:	5a755a1b 	0x5a755a1b
8ff07458:	5b295acf 	0x5b295acf
8ff0745c:	5bdc5b82 	0x5bdc5b82
8ff07460:	5c8e5c35 	0x5c8e5c35
8ff07464:	5d405ce7 	bgtzl	t2,8ff1e804 <save_tcsr+0x110c0>
8ff07468:	5df25d99 	0x5df25d99
8ff0746c:	5ea35e4b 	0x5ea35e4b
8ff07470:	5f545efb 	0x5f545efb
8ff07474:	60045fac 	0x60045fac
8ff07478:	60b4605c 	0x60b4605c
8ff0747c:	6163610b 	0x6163610b
8ff07480:	621261ba 	0x621261ba
8ff07484:	62c06269 	0x62c06269
8ff07488:	636e6317 	0x636e6317
8ff0748c:	641b63c4 	0x641b63c4
8ff07490:	64c86472 	0x64c86472
8ff07494:	6574651e 	0x6574651e
8ff07498:	662065cb 	0x662065cb
8ff0749c:	66cc6676 	0x66cc6676
8ff074a0:	67776722 	0x67776722
8ff074a4:	682267cd 	0x682267cd
8ff074a8:	68cc6877 	0x68cc6877
8ff074ac:	69766921 	0x69766921
8ff074b0:	6a1f69cb 	0x6a1f69cb
8ff074b4:	6ac86a74 	0x6ac86a74
8ff074b8:	6b716b1c 	0x6b716b1c
8ff074bc:	6c196bc5 	0x6c196bc5
8ff074c0:	6cc06c6c 	0x6cc06c6c
8ff074c4:	6d676d14 	0x6d676d14
8ff074c8:	6e0e6dbb 	0x6e0e6dbb
8ff074cc:	6eb46e61 	0x6eb46e61
8ff074d0:	6f5a6f08 	0x6f5a6f08
8ff074d4:	70006fad 	0x70006fad
8ff074d8:	70a57052 	0x70a57052
8ff074dc:	714a70f7 	0x714a70f7
8ff074e0:	71ee719c 	0x71ee719c
8ff074e4:	72927240 	0x72927240
8ff074e8:	733572e4 	0x733572e4
8ff074ec:	73d87387 	0x73d87387
8ff074f0:	747b742a 	jalx	81edd0a8 <interface-0xe022f58>
8ff074f4:	751d74cc 	jalx	8475d330 <interface-0xb7a2cd0>
8ff074f8:	75bf756e 	jalx	86fdd5b8 <interface-0x8f22a48>
8ff074fc:	76607610 	jalx	8981d840 <interface-0x66e27c0>
8ff07500:	770176b1 	jalx	8c05dac4 <interface-0x3ea253c>
8ff07504:	77a27752 	jalx	8e89dd48 <interface-0x16622b8>
8ff07508:	784277f2 	0x784277f2
8ff0750c:	78e27892 	0x78e27892
8ff07510:	79817932 	0x79817932
8ff07514:	7a2179d1 	0x7a2179d1
8ff07518:	7abf7a70 	0x7abf7a70
8ff0751c:	7b5e7b0e 	0x7b5e7b0e
8ff07520:	7bfb7bad 	0x7bfb7bad
8ff07524:	7c997c4a 	0x7c997c4a
8ff07528:	7d367ce8 	0x7d367ce8
8ff0752c:	7dd37d85 	0x7dd37d85
8ff07530:	7e6f7e21 	0x7e6f7e21
8ff07534:	7f0b7ebd 	0x7f0b7ebd
8ff07538:	7fa77f59 	0x7fa77f59
8ff0753c:	80427ff5 	lb	v0,32757(v0)
8ff07540:	80dd8090 	lb	sp,-32624(a2)
8ff07544:	8178812b 	lb	t8,-32469(t3)
8ff07548:	821281c5 	lb	s2,-32315(s0)
8ff0754c:	82ac825f 	lb	t4,-32161(s5)
8ff07550:	834582f9 	lb	a1,-32007(k0)
8ff07554:	83de8392 	lb	s8,-31854(s8)
8ff07558:	8477842b 	lh	s7,-31701(v1)
8ff0755c:	851084c3 	lh	s0,-31549(t0)
8ff07560:	85a8855c 	lh	t0,-31396(t5)
8ff07564:	863f85f4 	lh	ra,-31244(s1)
8ff07568:	86d7868b 	lh	s7,-31093(s6)
8ff0756c:	876e8722 	lh	t6,-30942(k1)
8ff07570:	880487b9 	lwl	a0,-30791(zero)
8ff07574:	889b8850 	lwl	k1,-30640(a0)
8ff07578:	893188e6 	lwl	s1,-30490(t1)
8ff0757c:	89c6897c 	lwl	a2,-30340(t6)
8ff07580:	8a5c8a11 	lwl	gp,-30191(s2)
8ff07584:	8af18aa6 	lwl	s1,-30042(s7)
8ff07588:	8b858b3b 	lwl	a1,-29893(gp)
8ff0758c:	8c198bcf 	lw	t9,-29745(zero)
8ff07590:	8cad8c63 	lw	t5,-29597(a1)
8ff07594:	8d418cf7 	lw	at,-29449(t2)
8ff07598:	8dd48d8b 	lw	s4,-29301(t6)
8ff0759c:	8e678e1e 	lw	a3,-29154(s3)
8ff075a0:	8efa8eb1 	lw	k0,-29007(s7)
8ff075a4:	8f8c8f43 	lw	t4,-28861(gp)
8ff075a8:	901e8fd5 	lbu	s8,-28715(zero)
8ff075ac:	90b09067 	lbu	s0,-28569(a1)
8ff075b0:	914190f8 	lbu	at,-28424(t2)
8ff075b4:	91d2918a 	lbu	s2,-28278(t6)
8ff075b8:	9263921a 	lbu	v1,-28134(s3)
8ff075bc:	92f392ab 	lbu	s3,-27989(s7)
8ff075c0:	9383933b 	lbu	v1,-27845(gp)
8ff075c4:	941393cb 	lhu	s3,-27701(zero)
8ff075c8:	94a2945b 	lhu	v0,-27557(a1)
8ff075cc:	953194ea 	lhu	s1,-27414(t1)
8ff075d0:	95c09579 	lhu	zero,-27271(t6)
8ff075d4:	964f9607 	lhu	t7,-27129(s2)
8ff075d8:	96dd9696 	lhu	sp,-26986(s6)
8ff075dc:	976b9724 	lhu	t3,-26844(k1)
8ff075e0:	97f897b1 	lhu	t8,-26703(ra)
8ff075e4:	9885983f 	lwr	a1,-26561(a0)
8ff075e8:	991298cc 	lwr	s2,-26420(t0)
8ff075ec:	999f9959 	lwr	ra,-26279(t4)
8ff075f0:	9a2b99e5 	lwr	t3,-26139(s1)
8ff075f4:	9ab79a71 	lwr	s7,-25999(s5)
8ff075f8:	9b439afd 	lwr	v1,-25859(k0)
8ff075fc:	9bce9b89 	lwr	t6,-25719(s8)
8ff07600:	9c5a9c14 	0x9c5a9c14
8ff07604:	9ce49c9f 	0x9ce49c9f
8ff07608:	9d6f9d2a 	0x9d6f9d2a
8ff0760c:	9df99db4 	0x9df99db4
8ff07610:	9e839e3e 	0x9e839e3e
8ff07614:	9f0d9ec8 	0x9f0d9ec8
8ff07618:	9f969f52 	0x9f969f52
8ff0761c:	a01f9fdb 	sb	ra,-24613(zero)
8ff07620:	a0a8a064 	sb	t0,-24476(a1)
8ff07624:	a131a0ec 	sb	s1,-24340(t1)
8ff07628:	a1b9a175 	sb	t9,-24203(t5)
8ff0762c:	a241a1fd 	sb	at,-24067(s2)
8ff07630:	a2c9a285 	sb	t1,-23931(s6)
8ff07634:	a350a30c 	sb	s0,-23796(k0)
8ff07638:	a3d7a394 	sb	s7,-23660(s8)
8ff0763c:	a45ea41b 	sh	s8,-23525(v0)
8ff07640:	a4e5a4a1 	sh	a1,-23391(a3)
8ff07644:	a56ba528 	sh	t3,-23256(t3)
8ff07648:	a5f1a5ae 	sh	s1,-23122(t7)
8ff0764c:	a677a634 	sh	s7,-22988(s3)
8ff07650:	a6fca6b9 	sh	gp,-22855(s7)
8ff07654:	a781a73f 	sh	at,-22721(gp)
8ff07658:	a806a7c4 	swl	a2,-22588(zero)
8ff0765c:	a88ba849 	swl	t3,-22455(a0)
8ff07660:	a90fa8cd 	swl	t7,-22323(t0)
8ff07664:	a993a951 	swl	s3,-22191(t4)
8ff07668:	aa17a9d5 	swl	s7,-22059(s0)
8ff0766c:	aa9baa59 	swl	k1,-21927(s4)
8ff07670:	ab1eaadd 	swl	s8,-21795(t8)
8ff07674:	aba1ab60 	swl	at,-21664(sp)
8ff07678:	ac24abe3 	sw	a0,-21533(at)
8ff0767c:	aca7ac65 	sw	a3,-21403(a1)
8ff07680:	ad29ace8 	sw	t1,-21272(t1)
8ff07684:	adabad6a 	sw	t3,-21142(t5)
8ff07688:	ae2dadec 	sw	t5,-21012(s1)
8ff0768c:	aeaeae6e 	sw	t6,-20882(s5)
8ff07690:	af30aeef 	sw	s0,-20753(t9)
8ff07694:	afb1af70 	sw	s1,-20624(sp)
8ff07698:	b031aff1 	0xb031aff1
8ff0769c:	b0b2b072 	0xb0b2b072
8ff076a0:	b132b0f2 	0xb132b0f2

8ff076a4 <Ivw283835773CA101486161704102408A5E3>:
8ff076a4:	173e17a5 	bne	t9,s8,8ff0d53c <pIvwObjBuf+0x4e7c>
8ff076a8:	15411670 	bne	t2,at,8ff0d06c <pIvwObjBuf+0x49ac>
8ff076ac:	11d113b4 	beq	t6,s1,8ff0c580 <pIvwObjBuf+0x3ec0>
8ff076b0:	0d2a0fa0 	jal	84a83e80 <interface-0xb47c180>
8ff076b4:	079e0a7b 	0x79e0a7b
8ff076b8:	018c049f 	0x18c049f
8ff076bc:	fb61fe74 	sdc2	$1,-396(k1)
8ff076c0:	f585f862 	sdc1	$f5,-1950(t4)
8ff076c4:	f060f2d6 	0xf060f2d6
8ff076c8:	ec4cee2f 	swc3	$12,-4561(v0)
8ff076cc:	e990eabf 	swc2	$16,-5441(t4)
8ff076d0:	e85be8c2 	swc2	$27,-5950(v0)
8ff076d4:	22fb258a 	addi	k1,s7,9610
8ff076d8:	170d1e0a 	bne	t8,t5,8ff0ef04 <save_tcsr+0x17c0>
8ff076dc:	04f10e7d 	bgezal	a3,8ff0b0d4 <pIvwObjBuf+0x2a14>
8ff076e0:	f183fb0f 	0xf183fb0f
8ff076e4:	e1f6e8f3 	sc	s6,-5901(t7)
8ff076e8:	da76dd05 	ldc2	$22,-8955(s3)
8ff076ec:	dd05da76 	ldc3	$5,-9610(t0)
8ff076f0:	e8f3e1f6 	swc2	$19,-7690(a3)
8ff076f4:	fb0ff183 	sdc2	$15,-3709(t8)
8ff076f8:	0e7d04f1 	jal	89f413c4 <interface-0x5fbec3c>
8ff076fc:	1e0a170d 	0x1e0a170d
8ff07700:	258a22fb 	addiu	t2,t4,8955
8ff07704:	2ac73275 	slti	a3,s6,12917
8ff07708:	0a091c95 	j	88247254 <interface-0x7cb8dac>
8ff0770c:	e36bf5f7 	sc	t3,-2569(k1)
8ff07710:	cd8bd539 	pref	0xb,-10951(t4)
8ff07714:	d539cd8b 	ldc1	$f25,-12917(t1)
8ff07718:	f5f7e36b 	sdc1	$f23,-7317(t7)
8ff0771c:	1c950a09 	0x1c950a09
8ff07720:	32752ac7 	andi	s5,s3,0x2ac7
8ff07724:	2ac73275 	slti	a3,s6,12917
8ff07728:	0a091c95 	j	88247254 <interface-0x7cb8dac>
8ff0772c:	e36bf5f7 	sc	t3,-2569(k1)
8ff07730:	cd8bd539 	pref	0xb,-10951(t4)
8ff07734:	2d603dfc 	sltiu	zero,t3,15868
8ff07738:	ef64109c 	swc3	$4,4252(k1)
8ff0773c:	c204d2a0 	ll	a0,-11616(s0)
8ff07740:	d2a0c204 	0xd2a0c204
8ff07744:	109cef64 	beq	a0,gp,8ff034d8 <Ivw6D2E95BD768E495BA5730EC448141+0x28>
8ff07748:	3dfc2d60 	0x3dfc2d60
8ff0774c:	2d603dfc 	sltiu	zero,t3,15868
8ff07750:	ef64109c 	swc3	$4,4252(k1)
8ff07754:	c204d2a0 	ll	a0,-11616(s0)
8ff07758:	d2a0c204 	0xd2a0c204
8ff0775c:	109cef64 	beq	a0,gp,8ff034f0 <Ivw6D2E95BD768E495BA5730EC448141+0x40>
8ff07760:	3dfc2d60 	0x3dfc2d60
8ff07764:	2a1947c2 	slti	t9,s0,18370
8ff07768:	ce09fb0c 	pref	0x9,-1268(s0)
8ff0776c:	bc09b5ad 	cache	0x9,-19027(zero)
8ff07770:	0ec8de7c 	jal	8b2379f0 <interface-0x4cc8610>
8ff07774:	4b9e38f9 	c2	0x19e38f9
8ff07778:	185b3f02 	0x185b3f02
8ff0777c:	c0fee7a5 	ll	s8,-6235(a3)
8ff07780:	c707b462 	lwc1	$f7,-19358(t8)
8ff07784:	2184f138 	addi	a0,t4,-3784
8ff07788:	4a5343f7 	c2	0x5343f7
8ff0778c:	04f431f7 	0x4f431f7
8ff07790:	b83ed5e7 	swr	s8,-10777(at)
8ff07794:	20ec4f7b 	addi	t4,a3,20347
8ff07798:	b085df14 	0xb085df14
8ff0779c:	df14b085 	ldc3	$20,-20347(t8)
8ff077a0:	4f7b20ec 	c3	0x17b20ec
8ff077a4:	20ec4f7b 	addi	t4,a3,20347
8ff077a8:	b085df14 	0xb085df14
8ff077ac:	df14b085 	ldc3	$20,-20347(t8)
8ff077b0:	4f7b20ec 	c3	0x17b20ec
8ff077b4:	20ec4f7b 	addi	t4,a3,20347
8ff077b8:	b085df14 	0xb085df14
8ff077bc:	df14b085 	ldc3	$20,-20347(t8)
8ff077c0:	4f7b20ec 	c3	0x17b20ec
8ff077c4:	127a54f3 	beq	s3,k0,8ff1cb94 <save_tcsr+0xf450>
8ff077c8:	a17cc18c 	sb	gp,-15988(t3)
8ff077cc:	1e72cb61 	0x1e72cb61
8ff077d0:	4ec159b1 	c3	0xc159b1
8ff077d4:	b8ca0631 	swr	t2,1585(a2)
8ff077d8:	d61ca31a 	ldc1	$f28,-23782(s0)
8ff077dc:	5ce629e4 	0x5ce629e4
8ff077e0:	f9cf4736 	sdc2	$15,18230(t6)
8ff077e4:	a64fb13f 	sh	t7,-20161(s2)
8ff077e8:	349fe18e 	ori	ra,a0,0xe18e
8ff077ec:	3e745e84 	0x3e745e84
8ff077f0:	ab0ded86 	swl	t5,-4730(t8)
8ff077f4:	0000580c 	syscall	0x160
8ff077f8:	a7f4a7f4 	sh	s4,-22540(ra)
8ff077fc:	580c0000 	0x580c0000
8ff07800:	0000580c 	syscall	0x160
8ff07804:	a7f4a7f4 	sh	s4,-22540(ra)
8ff07808:	580c0000 	0x580c0000
8ff0780c:	0000580c 	syscall	0x160
8ff07810:	a7f4a7f4 	sh	s4,-22540(ra)
8ff07814:	580c0000 	0x580c0000
8ff07818:	0000580c 	syscall	0x160
8ff0781c:	a7f4a7f4 	sh	s4,-22540(ra)
8ff07820:	580c0000 	0x580c0000
8ff07824:	eb2e58bf 	swc2	$14,22719(t9)
8ff07828:	c4b49751 	lwc1	$f20,-26799(a1)
8ff0782c:	68af3b4c 	0x68af3b4c
8ff07830:	a74114d2 	sh	at,5330(k0)
8ff07834:	14d2a741 	bne	a2,s2,8fef153c <interface-0xeac4>
8ff07838:	3b4c68af 	xori	t4,k0,0x68af
8ff0783c:	9751c4b4 	lhu	s1,-15180(k0)
8ff07840:	58bfeb2e 	0x58bfeb2e
8ff07844:	eb2e58bf 	swc2	$14,22719(t9)
8ff07848:	c4b49751 	lwc1	$f20,-26799(a1)
8ff0784c:	68af3b4c 	0x68af3b4c
8ff07850:	a74114d2 	sh	at,5330(k0)
8ff07854:	d5fa571f 	ldc1	$f26,22303(t7)
8ff07858:	f1ab9320 	0xf1ab9320
8ff0785c:	42da6575 	c0	0xda6575
8ff07860:	9a8bbd26 	lwr	t3,-17114(s4)
8ff07864:	6ce00e55 	0x6ce00e55
8ff07868:	a8e12a06 	swl	at,10758(a3)
8ff0786c:	2a06a8e1 	slti	a2,s0,-22303
8ff07870:	0e556ce0 	jal	8955b380 <interface-0x69a4c80>
8ff07874:	bd269a8b 	cache	0x6,-25973(t1)
8ff07878:	657542da 	0x657542da
8ff0787c:	9320f1ab 	lbu	zero,-3669(t9)
8ff07880:	571fd5fa 	bnel	t8,ra,8fefd06c <interface-0x2f94>
8ff07884:	c26b5357 	ll	t3,21335(s3)
8ff07888:	23a19c95 	addi	at,sp,-25451
8ff0788c:	f8c06cb8 	sdc2	$0,27832(a2)
8ff07890:	ea609163 	swc2	$0,-28317(s3)
8ff07894:	310768f7 	andi	a3,t0,0x68f7
8ff07898:	b6eaa3d5 	0xb6eaa3d5
8ff0789c:	5c2b4916 	0x5c2b4916
8ff078a0:	9709cef9 	lhu	t1,-12551(t8)
8ff078a4:	6e9d15a0 	0x6e9d15a0
8ff078a8:	9348073f 	lbu	t0,1855(k0)
8ff078ac:	636bdc5f 	0x636bdc5f
8ff078b0:	aca93d95 	sw	t1,15765(a1)
8ff078b4:	b25a4da6 	0xb25a4da6
8ff078b8:	4da6b25a 	0x4da6b25a
8ff078bc:	b2594da6 	0xb2594da6
8ff078c0:	4da7b25a 	0x4da7b25a
8ff078c4:	b2594da6 	0xb2594da6
8ff078c8:	4da7b25a 	0x4da7b25a
8ff078cc:	b2594da6 	0xb2594da6
8ff078d0:	4da7b25a 	0x4da7b25a
8ff078d4:	b2594da6 	0xb2594da6
8ff078d8:	4da7b25a 	0x4da7b25a
8ff078dc:	b2594da6 	0xb2594da6
8ff078e0:	4da7b25a 	0x4da7b25a

8ff078e4 <Ivw27F72D573CA101486161704102408A5E3>:
8ff078e4:	147e147a 	bne	v1,s8,8ff0cad0 <pIvwObjBuf+0x4410>
8ff078e8:	149c1488 	bne	a0,gp,8ff0cb0c <pIvwObjBuf+0x444c>
8ff078ec:	14d814b6 	bne	a2,t8,8ff0cbc8 <pIvwObjBuf+0x4508>
8ff078f0:	15301500 	bne	t1,s0,8ff0ccf4 <pIvwObjBuf+0x4634>
8ff078f4:	15a81568 	bne	t5,t0,8ff0ce98 <pIvwObjBuf+0x47d8>
8ff078f8:	163e15ee 	bne	s1,s8,8ff0d0b4 <pIvwObjBuf+0x49f4>
8ff078fc:	16f01692 	bne	s7,s0,8ff0d348 <pIvwObjBuf+0x4c88>
8ff07900:	17be1754 	bne	sp,s8,8ff0d654 <pIvwObjBuf+0x4f94>
8ff07904:	18ac1832 	0x18ac1832
8ff07908:	19b6192c 	0x19b6192c
8ff0790c:	1adc1a44 	0x1adc1a44
8ff07910:	1c1e1b78 	0x1c1e1b78
8ff07914:	1d7c1cca 	0x1d7c1cca
8ff07918:	1ef61e36 	0x1ef61e36
8ff0791c:	208c1fbe 	addi	t4,a0,8126
8ff07920:	223c2160 	addi	gp,s1,8544
8ff07924:	2406231e 	li	a2,8990
8ff07928:	25ea24f4 	addiu	t2,t7,9460
8ff0792c:	27e826e6 	addiu	t0,ra,9958
8ff07930:	29fe28f0 	slti	s8,t7,10480
8ff07934:	2c2e2b14 	sltiu	t6,at,11028
8ff07938:	2e762d4e 	sltiu	s6,s3,11598
8ff0793c:	30d42fa2 	andi	s4,a2,0x2fa2
8ff07940:	3348320c 	andi	t0,k0,0x320c
8ff07944:	35d4348c 	ori	s4,t6,0x348c
8ff07948:	38743722 	xori	s4,v1,0x3722
8ff0794c:	3b2a39cc 	xori	t2,t9,0x39cc
8ff07950:	3df43c8c 	0x3df43c8c
8ff07954:	40d03f60 	0x40d03f60
8ff07958:	43c04246 	c0	0x1c04246
8ff0795c:	46c2453e 	c1	0xc2453e
8ff07960:	49d44848 	0x49d44848
8ff07964:	4cf64b64 	0x4cf64b64
8ff07968:	502a4e8e 	beql	at,t2,8ff1b3a4 <save_tcsr+0xdc60>
8ff0796c:	536a51c8 	beql	k1,t2,8ff1c090 <save_tcsr+0xe94c>
8ff07970:	56ba5510 	bnel	s5,k0,8ff1cdb4 <save_tcsr+0xf670>
8ff07974:	5a165866 	0x5a165866
8ff07978:	5d7e5bc8 	0x5d7e5bc8
8ff0797c:	60f25f36 	0x60f25f36
8ff07980:	647062b0 	0x647062b0
8ff07984:	67f86632 	0x67f86632
8ff07988:	6b8869c0 	0x6b8869c0
8ff0798c:	6f226d54 	0x6f226d54
8ff07990:	72c070f0 	0x72c070f0
8ff07994:	76667492 	jalx	8999d248 <interface-0x6562db8>
8ff07998:	7a10783a 	0x7a10783a
8ff0799c:	7dbe7be6 	0x7dbe7be6
8ff079a0:	81707f96 	lb	s0,32662(t3)
8ff079a4:	8524834a 	lh	a0,-31926(t1)
8ff079a8:	88d886fe 	lwl	t8,-30978(a2)
8ff079ac:	8c8e8ab4 	lw	t6,-30028(a0)
8ff079b0:	90428e68 	lbu	v0,-29080(v0)
8ff079b4:	93f6921c 	lbu	s6,-28132(ra)
8ff079b8:	97a695ce 	lhu	a2,-27186(sp)
8ff079bc:	9b54997e 	lwr	s4,-26242(k0)
8ff079c0:	9efe9d2a 	0x9efe9d2a
8ff079c4:	a2a2a0d0 	sb	v0,-24368(s5)
8ff079c8:	a63ea470 	sh	s8,-23440(s1)
8ff079cc:	a9d6a80a 	swl	s6,-22518(t6)
8ff079d0:	ad64ab9e 	sw	a0,-21602(t3)
8ff079d4:	b0eaaf28 	0xb0eaaf28
8ff079d8:	b464b2a8 	0xb464b2a8
8ff079dc:	b7d6b61e 	0xb7d6b61e
8ff079e0:	bb3cb98a 	swr	gp,-18038(t9)
8ff079e4:	be94bcea 	cache	0x14,-17174(s4)
8ff079e8:	c1e0c03c 	ll	zero,-16324(t7)
8ff079ec:	c51ec380 	lwc1	$f30,-15488(t0)
8ff079f0:	c84cc6b6 	lwc2	$12,-14666(v0)
8ff079f4:	cb6cc9de 	lwc2	$12,-13858(k1)
8ff079f8:	ce7accf4 	pref	0x1a,-13068(s3)
8ff079fc:	d176cffa 	0xd176cffa
8ff07a00:	d462d2ee 	ldc1	$f2,-11538(v1)
8ff07a04:	d73ad5d0 	ldc1	$f26,-10800(t9)
8ff07a08:	d9fed89e 	ldc2	$30,-10082(t7)
8ff07a0c:	dcaedb58 	ldc3	$14,-9384(a1)
8ff07a10:	df4addfe 	ldc3	$10,-8706(k0)
8ff07a14:	e1d0e090 	sc	s0,-8048(t6)
8ff07a18:	e440e30a 	swc1	$f0,-7414(v0)
8ff07a1c:	e698e56e 	swc1	$f24,-6802(s4)
8ff07a20:	e8dae7bc 	swc2	$26,-6212(a2)
8ff07a24:	eb02e9f0 	swc2	$2,-5648(t8)
8ff07a28:	ed12ec0e 	swc3	$18,-5106(t0)
8ff07a2c:	ef0aee12 	swc3	$10,-4590(t8)
8ff07a30:	f0e8effc 	0xf0e8effc
8ff07a34:	f2acf1ce 	0xf2acf1ce
8ff07a38:	f456f384 	sdc1	$f22,-3196(v0)
8ff07a3c:	f5e4f520 	sdc1	$f4,-2784(t7)
8ff07a40:	f758f6a0 	sdc1	$f24,-2400(k0)
8ff07a44:	f8aef806 	sdc2	$14,-2042(a1)
8ff07a48:	f9eaf950 	sdc2	$10,-1712(t7)
8ff07a4c:	fb08fa7c 	sdc2	$8,-1412(t8)
8ff07a50:	fc0cfb8e 	sdc3	$12,-1138(zero)
8ff07a54:	fcf0fc82 	sdc3	$16,-894(a3)
8ff07a58:	fdb8fd58 	sdc3	$24,-680(t5)
8ff07a5c:	fe64fe12 	sdc3	$4,-494(s3)
8ff07a60:	fef2feae 	sdc3	$18,-338(s7)
8ff07a64:	ff62ff2c 	sdc3	$2,-212(k1)
8ff07a68:	ffb4ff8e 	sdc3	$20,-114(sp)
8ff07a6c:	ffe8ffd2 	sdc3	$8,-46(ra)
8ff07a70:	fffefff6 	sdc3	$30,-10(ra)
8ff07a74:	fff6fffe 	sdc3	$22,-2(ra)
8ff07a78:	ffd2ffe8 	sdc3	$18,-24(s8)
8ff07a7c:	ff8effb4 	sdc3	$14,-76(gp)
8ff07a80:	ff2cff62 	sdc3	$12,-158(t9)
8ff07a84:	feaefef2 	sdc3	$14,-270(s5)
8ff07a88:	fe12fe64 	sdc3	$18,-412(s0)
8ff07a8c:	fd58fdb8 	sdc3	$24,-584(t2)
8ff07a90:	fc82fcf0 	sdc3	$2,-784(a0)
8ff07a94:	fb8efc0c 	sdc2	$14,-1012(gp)
8ff07a98:	fa7cfb08 	sdc2	$28,-1272(s3)
8ff07a9c:	f950f9ea 	sdc2	$16,-1558(t2)
8ff07aa0:	f806f8ae 	sdc2	$6,-1874(zero)
8ff07aa4:	f6a0f758 	sdc1	$f0,-2216(s5)
8ff07aa8:	f520f5e4 	sdc1	$f0,-2588(t1)
8ff07aac:	f384f456 	0xf384f456
8ff07ab0:	f1cef2ac 	0xf1cef2ac
8ff07ab4:	effcf0e8 	swc3	$28,-3864(ra)
8ff07ab8:	ee12ef0a 	swc3	$18,-4342(s0)
8ff07abc:	ec0eed12 	swc3	$14,-4846(zero)
8ff07ac0:	e9f0eb02 	swc2	$16,-5374(t7)
8ff07ac4:	e7bce8da 	swc1	$f28,-5926(sp)
8ff07ac8:	e56ee698 	swc1	$f14,-6504(t3)
8ff07acc:	e30ae440 	sc	t2,-7104(t8)
8ff07ad0:	e090e1d0 	sc	s0,-7728(a0)
8ff07ad4:	ddfedf4a 	ldc3	$30,-8374(t7)
8ff07ad8:	db58dcae 	ldc2	$24,-9042(k0)
8ff07adc:	d89ed9fe 	ldc2	$30,-9730(a0)
8ff07ae0:	d5d0d73a 	ldc1	$f16,-10438(t6)
8ff07ae4:	d2eed462 	0xd2eed462
8ff07ae8:	cffad176 	pref	0x1a,-11914(ra)
8ff07aec:	ccf4ce7a 	pref	0x14,-12678(a3)
8ff07af0:	c9decb6c 	lwc2	$30,-13460(t6)
8ff07af4:	c6b6c84c 	lwc1	$f22,-14260(s5)
8ff07af8:	c380c51e 	ll	zero,-15074(gp)
8ff07afc:	c03cc1e0 	ll	gp,-15904(at)
8ff07b00:	bceabe94 	cache	0xa,-16748(a3)
8ff07b04:	b98abb3c 	swr	t2,-17604(t4)
8ff07b08:	b61eb7d6 	0xb61eb7d6
8ff07b0c:	b2a8b464 	0xb2a8b464
8ff07b10:	af28b0ea 	sw	t0,-20246(t9)
8ff07b14:	ab9ead64 	swl	s8,-21148(gp)
8ff07b18:	a80aa9d6 	swl	t2,-22058(zero)
8ff07b1c:	a470a63e 	sh	s0,-22978(v1)
8ff07b20:	a0d0a2a2 	sb	s0,-23902(a2)
8ff07b24:	9d2a9efe 	0x9d2a9efe
8ff07b28:	997e9b54 	lwr	s8,-25772(t3)
8ff07b2c:	95ce97a6 	lhu	t6,-26714(t6)
8ff07b30:	921c93f6 	lbu	gp,-27658(s0)
8ff07b34:	8e689042 	lw	t0,-28606(s3)
8ff07b38:	8ab48c8e 	lwl	s4,-29554(s5)
8ff07b3c:	86fe88d8 	lh	s8,-30504(s7)
8ff07b40:	834a8524 	lb	t2,-31452(k0)
8ff07b44:	7f968170 	0x7f968170
8ff07b48:	7be67dbe 	0x7be67dbe
8ff07b4c:	783a7a10 	0x783a7a10
8ff07b50:	74927666 	jalx	8249d998 <interface-0xda62668>
8ff07b54:	70f072c0 	0x70f072c0
8ff07b58:	6d546f20 	0x6d546f20
8ff07b5c:	69c06b88 	0x69c06b88
8ff07b60:	663267f8 	0x663267f8
8ff07b64:	62b06470 	0x62b06470
8ff07b68:	5f3660f2 	0x5f3660f2
8ff07b6c:	5bc85d7e 	0x5bc85d7e
8ff07b70:	58665a16 	0x58665a16
8ff07b74:	551056ba 	bnel	t0,s0,8ff1d660 <save_tcsr+0xff1c>
8ff07b78:	51c8536a 	beql	t6,t0,8ff1c924 <save_tcsr+0xf1e0>
8ff07b7c:	4e8e502a 	c3	0x8e502a
8ff07b80:	4b644cf6 	c2	0x1644cf6
8ff07b84:	484849d4 	0x484849d4
8ff07b88:	453e46c2 	0x453e46c2
8ff07b8c:	424643c0 	c0	0x4643c0
8ff07b90:	3f6040d0 	0x3f6040d0
8ff07b94:	3c8c3df4 	0x3c8c3df4
8ff07b98:	39cc3b2a 	xori	t4,t6,0x3b2a
8ff07b9c:	37223874 	ori	v0,t9,0x3874
8ff07ba0:	348c35d4 	ori	t4,a0,0x35d4
8ff07ba4:	320c3348 	andi	t4,s0,0x3348
8ff07ba8:	2fa230d4 	sltiu	v0,sp,12500
8ff07bac:	2d4e2e76 	sltiu	t6,t2,11894
8ff07bb0:	2b142c2e 	slti	s4,t8,11310
8ff07bb4:	28f029fe 	slti	s0,a3,10750
8ff07bb8:	26e627e8 	addiu	a2,s7,10216
8ff07bbc:	24f425ea 	addiu	s4,a3,9706
8ff07bc0:	231e2406 	addi	s8,t8,9222
8ff07bc4:	2160223c 	addi	zero,t3,8764
8ff07bc8:	1fbe208c 	0x1fbe208c
8ff07bcc:	1e361ef6 	0x1e361ef6
8ff07bd0:	1cca1d7c 	0x1cca1d7c
8ff07bd4:	1b781c1e 	0x1b781c1e
8ff07bd8:	1a441adc 	0x1a441adc
8ff07bdc:	192c19b6 	0x192c19b6
8ff07be0:	183218ac 	0x183218ac
8ff07be4:	175417be 	bne	k0,s4,8ff0dae0 <save_tcsr+0x39c>
8ff07be8:	169216f0 	bne	s4,s2,8ff0d7ac <save_tcsr+0x68>
8ff07bec:	15ee163e 	bne	t7,t6,8ff0d4e8 <pIvwObjBuf+0x4e28>
8ff07bf0:	156815a8 	bne	t3,t0,8ff0d294 <pIvwObjBuf+0x4bd4>
8ff07bf4:	15001530 	bnez	t0,8ff0d0b8 <pIvwObjBuf+0x49f8>
8ff07bf8:	14b614d8 	bne	a1,s6,8ff0cf5c <pIvwObjBuf+0x489c>
8ff07bfc:	1488149c 	bne	a0,t0,8ff0ce70 <pIvwObjBuf+0x47b0>
8ff07c00:	147a147e 	bne	v1,k0,8ff0cdfc <pIvwObjBuf+0x473c>

8ff07c04 <Ivw28226EA73CA101486161704102408A5E3>:
8ff07c04:	00800000 	0x800000
8ff07c08:	00c00040 	0xc00040
8ff07c0c:	00a00020 	add	zero,a1,zero
8ff07c10:	00e00060 	0xe00060
8ff07c14:	00900010 	0x900010
8ff07c18:	00d00050 	0xd00050
8ff07c1c:	00b00030 	tge	a1,s0
8ff07c20:	00f00070 	tge	a3,s0,0x1
8ff07c24:	00880008 	0x880008
8ff07c28:	00c80048 	0xc80048
8ff07c2c:	00a80028 	0xa80028
8ff07c30:	00e80068 	0xe80068
8ff07c34:	00980018 	mult	a0,t8
8ff07c38:	00d80058 	0xd80058
8ff07c3c:	00b80038 	0xb80038
8ff07c40:	00f80078 	0xf80078
8ff07c44:	00840004 	sllv	zero,a0,a0
8ff07c48:	00c40044 	0xc40044
8ff07c4c:	00a40024 	and	zero,a1,a0
8ff07c50:	00e40064 	0xe40064
8ff07c54:	00940014 	0x940014
8ff07c58:	00d40054 	0xd40054
8ff07c5c:	00b40034 	teq	a1,s4
8ff07c60:	00f40074 	teq	a3,s4,0x1
8ff07c64:	008c000c 	syscall	0x23000
8ff07c68:	00cc004c 	syscall	0x33001
8ff07c6c:	00ac002c 	0xac002c
8ff07c70:	00ec006c 	0xec006c
8ff07c74:	009c001c 	0x9c001c
8ff07c78:	00dc005c 	0xdc005c
8ff07c7c:	00bc003c 	0xbc003c
8ff07c80:	00fc007c 	0xfc007c
8ff07c84:	00820002 	0x820002
8ff07c88:	00c20042 	0xc20042
8ff07c8c:	00a20022 	sub	zero,a1,v0
8ff07c90:	00e20062 	0xe20062
8ff07c94:	00920012 	0x920012
8ff07c98:	00d20052 	0xd20052
8ff07c9c:	00b20032 	tlt	a1,s2
8ff07ca0:	00f20072 	tlt	a3,s2,0x1
8ff07ca4:	008a000a 	movz	zero,a0,t2
8ff07ca8:	00ca004a 	0xca004a
8ff07cac:	00aa002a 	slt	zero,a1,t2
8ff07cb0:	00ea006a 	0xea006a
8ff07cb4:	009a001a 	div	zero,a0,k0
8ff07cb8:	00da005a 	0xda005a
8ff07cbc:	00ba003a 	0xba003a
8ff07cc0:	00fa007a 	0xfa007a
8ff07cc4:	00860006 	srlv	zero,a2,a0
8ff07cc8:	00c60046 	0xc60046
8ff07ccc:	00a60026 	xor	zero,a1,a2
8ff07cd0:	00e60066 	0xe60066
8ff07cd4:	00960016 	0x960016
8ff07cd8:	00d60056 	0xd60056
8ff07cdc:	00b60036 	tne	a1,s6
8ff07ce0:	00f60076 	tne	a3,s6,0x1
8ff07ce4:	008e000e 	0x8e000e
8ff07ce8:	00ce004e 	0xce004e
8ff07cec:	00ae002e 	0xae002e
8ff07cf0:	00ee006e 	0xee006e
8ff07cf4:	009e001e 	0x9e001e
8ff07cf8:	00de005e 	0xde005e
8ff07cfc:	00be003e 	0xbe003e
8ff07d00:	00fe007e 	0xfe007e
8ff07d04:	00810001 	movt	zero,a0,$fcc0
8ff07d08:	00c10041 	0xc10041
8ff07d0c:	00a10021 	addu	zero,a1,at
8ff07d10:	00e10061 	0xe10061
8ff07d14:	00910011 	0x910011
8ff07d18:	00d10051 	0xd10051
8ff07d1c:	00b10031 	tgeu	a1,s1
8ff07d20:	00f10071 	tgeu	a3,s1,0x1
8ff07d24:	00890009 	0x890009
8ff07d28:	00c90049 	0xc90049
8ff07d2c:	00a90029 	0xa90029
8ff07d30:	00e90069 	0xe90069
8ff07d34:	00990019 	multu	a0,t9
8ff07d38:	00d90059 	0xd90059
8ff07d3c:	00b90039 	0xb90039
8ff07d40:	00f90079 	0xf90079
8ff07d44:	00850005 	0x850005
8ff07d48:	00c50045 	0xc50045
8ff07d4c:	00a50025 	or	zero,a1,a1
8ff07d50:	00e50065 	0xe50065
8ff07d54:	00950015 	0x950015
8ff07d58:	00d50055 	0xd50055
8ff07d5c:	00b50035 	0xb50035
8ff07d60:	00f50075 	0xf50075
8ff07d64:	008d000d 	break	0x8d
8ff07d68:	00cd004d 	break	0xcd,0x1
8ff07d6c:	00ad002d 	0xad002d
8ff07d70:	00ed006d 	0xed006d
8ff07d74:	009d001d 	0x9d001d
8ff07d78:	00dd005d 	0xdd005d
8ff07d7c:	00bd003d 	0xbd003d
8ff07d80:	00fd007d 	0xfd007d
8ff07d84:	00830003 	0x830003
8ff07d88:	00c30043 	0xc30043
8ff07d8c:	00a30023 	subu	zero,a1,v1
8ff07d90:	00e30063 	0xe30063

8ff07d94 <Ivw2749BA873CA101486161704102408A5E3>:
8ff07d94:	7ffd7fff 	0x7ffd7fff
8ff07d98:	7fe97ff6 	0x7fe97ff6
8ff07d9c:	7fc27fd8 	0x7fc27fd8
8ff07da0:	7f877fa7 	0x7f877fa7
8ff07da4:	7f387f62 	0x7f387f62
8ff07da8:	7ed57f09 	0x7ed57f09
8ff07dac:	7e5f7e9d 	0x7e5f7e9d
8ff07db0:	7dd67e1d 	0x7dd67e1d
8ff07db4:	7d397d8a 	0x7d397d8a
8ff07db8:	7c897ce3 	0x7c897ce3
8ff07dbc:	7bc57c29 	0x7bc57c29
8ff07dc0:	7aef7b5d 	0x7aef7b5d
8ff07dc4:	7a057a7d 	0x7a057a7d
8ff07dc8:	7909798a 	0x7909798a
8ff07dcc:	77fa7884 	jalx	8fe9e210 <interface-0x61df0>
8ff07dd0:	76d9776c 	jalx	8b65ddb0 <interface-0x48a2250>
8ff07dd4:	75a57641 	jalx	8695d904 <interface-0x95a26fc>
8ff07dd8:	745f7504 	jalx	817dd410 <interface-0xe722bf0>
8ff07ddc:	730773b5 	0x730773b5
8ff07de0:	719e7255 	0x719e7255
8ff07de4:	702370e2 	0x702370e2
8ff07de8:	6e966f5f 	0x6e966f5f
8ff07dec:	6cf96dca 	0x6cf96dca
8ff07df0:	6b4a6c24 	0x6b4a6c24
8ff07df4:	698c6a6d 	0x698c6a6d
8ff07df8:	67bd68a6 	0x67bd68a6
8ff07dfc:	65dd66cf 	0x65dd66cf
8ff07e00:	63ef64e8 	0x63ef64e8
8ff07e04:	61f162f2 	0x61f162f2
8ff07e08:	5fe360ec 	0x5fe360ec
8ff07e0c:	5dc75ed7 	0x5dc75ed7
8ff07e10:	5b9d5cb4 	0x5b9d5cb4
8ff07e14:	59645a82 	0x59645a82
8ff07e18:	571d5842 	bnel	t8,sp,8ff1df24 <save_tcsr+0x107e0>
8ff07e1c:	54ca55f5 	bnel	a2,t2,8ff1d5f4 <save_tcsr+0xfeb0>
8ff07e20:	5269539b 	beql	s3,t1,8ff1cc90 <save_tcsr+0xf54c>
8ff07e24:	4ffb5133 	c3	0x1fb5133
8ff07e28:	4d814ebf 	0x4d814ebf
8ff07e2c:	4afb4c3f 	c2	0xfb4c3f
8ff07e30:	486949b4 	0x486949b4
8ff07e34:	45cd471c 	0x45cd471c
8ff07e38:	4325447a 	c0	0x125447a
8ff07e3c:	407341ce 	0x407341ce
8ff07e40:	3db83f17 	0x3db83f17
8ff07e44:	3af23c56 	xori	s2,s7,0x3c56
8ff07e48:	3824398c 	xori	a0,at,0x398c
8ff07e4c:	354d36ba 	ori	t5,t2,0x36ba
8ff07e50:	326e33de 	andi	t6,s3,0x33de
8ff07e54:	2f8730fb 	sltiu	a3,gp,12539
8ff07e58:	2c982e11 	sltiu	t8,a0,11793
8ff07e5c:	29a32b1f 	slti	v1,t5,11039
8ff07e60:	26a82826 	addiu	t0,s5,10278
8ff07e64:	23a62528 	addi	a2,sp,9512
8ff07e68:	209f2223 	addi	ra,a0,8739
8ff07e6c:	1d931f19 	0x1d931f19
8ff07e70:	1a821c0b 	0x1a821c0b
8ff07e74:	176d18f8 	bne	k1,t5,8ff0e258 <save_tcsr+0xb14>
8ff07e78:	145515e2 	bne	v0,s5,8ff0d604 <pIvwObjBuf+0x4f44>
8ff07e7c:	113912c8 	beq	t1,t9,8ff0c9a0 <pIvwObjBuf+0x42e0>
8ff07e80:	0e1b0fab 	jal	886c3eac <interface-0x783c154>
8ff07e84:	0afb0c8b 	j	8bec322c <interface-0x403cdd4>
8ff07e88:	07d9096a 	0x7d9096a
8ff07e8c:	04b60647 	0x4b60647
8ff07e90:	01920324 	0x1920324
8ff07e94:	fe6e0000 	sdc3	$14,0(s3)
8ff07e98:	fb4afcdc 	sdc2	$10,-804(k0)
8ff07e9c:	f827f9b9 	sdc2	$7,-1607(at)
8ff07ea0:	f505f696 	sdc1	$f5,-2410(t0)
8ff07ea4:	f1e5f375 	0xf1e5f375
8ff07ea8:	eec7f055 	swc3	$7,-4011(s6)
8ff07eac:	ebabed38 	swc2	$11,-4808(sp)
8ff07eb0:	e893ea1e 	swc2	$19,-5602(a0)
8ff07eb4:	e57ee708 	swc1	$f30,-6392(t3)
8ff07eb8:	e26de3f5 	sc	t5,-7179(s3)
8ff07ebc:	df61e0e7 	ldc3	$1,-7961(k1)
8ff07ec0:	dc5adddd 	ldc3	$26,-8739(v0)
8ff07ec4:	d958dad8 	ldc2	$24,-9512(t2)
8ff07ec8:	d65dd7da 	ldc1	$f29,-10278(s2)
8ff07ecc:	d368d4e1 	0xd368d4e1
8ff07ed0:	d079d1ef 	0xd079d1ef
8ff07ed4:	cd92cf05 	pref	0x12,-12539(t4)
8ff07ed8:	cab3cc22 	lwc2	$19,-13278(s5)
8ff07edc:	c7dcc946 	lwc1	$f28,-14010(s8)
8ff07ee0:	c50ec674 	lwc1	$f14,-14732(t0)
8ff07ee4:	c248c3aa 	ll	t0,-15446(s2)
8ff07ee8:	bf8dc0e9 	cache	0xd,-16151(gp)
8ff07eec:	bcdbbe32 	cache	0x1b,-16846(a2)
8ff07ef0:	ba33bb86 	swr	s3,-17530(s1)
8ff07ef4:	b797b8e4 	0xb797b8e4
8ff07ef8:	b505b64c 	0xb505b64c
8ff07efc:	b27fb3c1 	0xb27fb3c1
8ff07f00:	b005b141 	0xb005b141
8ff07f04:	ad97aecd 	sw	s7,-20787(t4)
8ff07f08:	ab36ac65 	swl	s6,-21403(t9)
8ff07f0c:	a8e3aa0b 	swl	v1,-22005(a3)
8ff07f10:	a69ca7be 	sh	gp,-22594(s4)
8ff07f14:	a463a57e 	sh	v1,-23170(v1)
8ff07f18:	a239a34c 	sb	t9,-23732(s1)
8ff07f1c:	a01da129 	sb	sp,-24279(zero)
8ff07f20:	9e0f9f14 	0x9e0f9f14
8ff07f24:	9c119d0e 	0x9c119d0e
8ff07f28:	9a239b18 	lwr	v1,-25832(s1)
8ff07f2c:	98439931 	lwr	v1,-26319(v0)
8ff07f30:	9674975a 	lhu	s4,-26790(s3)
8ff07f34:	94b69593 	lhu	s6,-27245(a1)
8ff07f38:	930793dc 	lbu	a3,-27684(t8)
8ff07f3c:	916a9236 	lbu	t2,-28106(t3)
8ff07f40:	8fdd90a1 	lw	sp,-28511(s8)
8ff07f44:	8e628f1e 	lw	v0,-28898(s3)
8ff07f48:	8cf98dab 	lw	t9,-29269(a3)
8ff07f4c:	8ba18c4b 	lwl	at,-29621(sp)
8ff07f50:	8a5b8afc 	lwl	k1,-29956(s2)
8ff07f54:	892789bf 	lwl	a3,-30273(t1)
8ff07f58:	88068894 	lwl	a2,-30572(zero)
8ff07f5c:	86f7877c 	lh	s7,-30852(s7)
8ff07f60:	85fb8676 	lh	k1,-31114(t7)
8ff07f64:	85118583 	lh	s1,-31357(t0)
8ff07f68:	843b84a3 	lh	k1,-31581(at)
8ff07f6c:	837783d7 	lb	s7,-31785(k1)
8ff07f70:	82c7831d 	lb	a3,-31971(s6)
8ff07f74:	822a8276 	lb	t2,-32138(s1)
8ff07f78:	81a181e3 	lb	at,-32285(t5)
8ff07f7c:	812b8163 	lb	t3,-32413(t1)
8ff07f80:	80c880f7 	lb	t0,-32521(a2)
8ff07f84:	8079809e 	lb	t9,-32610(v1)
8ff07f88:	803e8059 	lb	s8,-32679(at)
8ff07f8c:	80178028 	lb	s7,-32728(zero)
8ff07f90:	8003800a 	lb	v1,-32758(zero)
8ff07f94:	80038001 	lb	v1,-32767(zero)
8ff07f98:	8017800a 	lb	s7,-32758(zero)
8ff07f9c:	803e8028 	lb	s8,-32728(at)
8ff07fa0:	80798059 	lb	t9,-32679(v1)
8ff07fa4:	80c8809e 	lb	t0,-32610(a2)
8ff07fa8:	812b80f7 	lb	t3,-32521(t1)
8ff07fac:	81a18163 	lb	at,-32413(t5)
8ff07fb0:	822a81e3 	lb	t2,-32285(s1)
8ff07fb4:	82c78276 	lb	a3,-32138(s6)
8ff07fb8:	8377831d 	lb	s7,-31971(k1)
8ff07fbc:	843b83d7 	lh	k1,-31785(at)
8ff07fc0:	851184a3 	lh	s1,-31581(t0)
8ff07fc4:	85fb8583 	lh	k1,-31357(t7)
8ff07fc8:	86f78676 	lh	s7,-31114(s7)
8ff07fcc:	8806877c 	lwl	a2,-30852(zero)
8ff07fd0:	89278894 	lwl	a3,-30572(t1)
8ff07fd4:	8a5b89bf 	lwl	k1,-30273(s2)
8ff07fd8:	8ba18afc 	lwl	at,-29956(sp)
8ff07fdc:	8cf98c4b 	lw	t9,-29621(a3)
8ff07fe0:	8e628dab 	lw	v0,-29269(s3)
8ff07fe4:	8fdd8f1e 	lw	sp,-28898(s8)
8ff07fe8:	916a90a1 	lbu	t2,-28511(t3)
8ff07fec:	93079236 	lbu	a3,-28106(t8)
8ff07ff0:	94b693dc 	lhu	s6,-27684(a1)
8ff07ff4:	96749593 	lhu	s4,-27245(s3)
8ff07ff8:	9843975a 	lwr	v1,-26790(v0)
8ff07ffc:	9a239931 	lwr	v1,-26319(s1)
8ff08000:	9c119b18 	0x9c119b18
8ff08004:	9e109d0e 	0x9e109d0e
8ff08008:	a01d9f14 	sb	sp,-24812(zero)
8ff0800c:	a239a129 	sb	t9,-24279(s1)
8ff08010:	a463a34c 	sh	v1,-23732(v1)
8ff08014:	a69ca57e 	sh	gp,-23170(s4)
8ff08018:	a8e3a7be 	swl	v1,-22594(a3)
8ff0801c:	ab36aa0b 	swl	s6,-22005(t9)
8ff08020:	ad97ac65 	sw	s7,-21403(t4)
8ff08024:	b005aecd 	0xb005aecd
8ff08028:	b27fb141 	0xb27fb141
8ff0802c:	b505b3c1 	0xb505b3c1
8ff08030:	b797b64c 	0xb797b64c
8ff08034:	ba33b8e4 	swr	s3,-18204(s1)
8ff08038:	bcdbbb86 	cache	0x1b,-17530(a2)
8ff0803c:	bf8dbe32 	cache	0xd,-16846(gp)
8ff08040:	c248c0e9 	ll	t0,-16151(s2)
8ff08044:	c50ec3aa 	lwc1	$f14,-15446(t0)
8ff08048:	c7dcc674 	lwc1	$f28,-14732(s8)
8ff0804c:	cab3c946 	lwc2	$19,-14010(s5)
8ff08050:	cd92cc22 	pref	0x12,-13278(t4)
8ff08054:	d079cf05 	0xd079cf05
8ff08058:	d368d1ef 	0xd368d1ef
8ff0805c:	d65dd4e1 	ldc1	$f29,-11039(s2)
8ff08060:	d958d7da 	ldc2	$24,-10278(t2)
8ff08064:	dc5adad8 	ldc3	$26,-9512(v0)
8ff08068:	df61dddd 	ldc3	$1,-8739(k1)
8ff0806c:	e26de0e7 	sc	t5,-7961(s3)
8ff08070:	e57ee3f5 	swc1	$f30,-7179(t3)
8ff08074:	e893e708 	swc2	$19,-6392(a0)
8ff08078:	ebabea1e 	swc2	$11,-5602(sp)
8ff0807c:	eec7ed38 	swc3	$7,-4808(s6)
8ff08080:	f1e5f055 	0xf1e5f055
8ff08084:	f505f375 	sdc1	$f5,-3211(t0)
8ff08088:	f827f696 	sdc2	$7,-2410(at)
8ff0808c:	fb4af9b9 	sdc2	$10,-1607(k0)
8ff08090:	fe6efcdc 	sdc3	$14,-804(s3)

8ff08094 <Ivw275F8CA73CA101486161704102408A5E3>:
8ff08094:	00050001 	movt	zero,zero,$fcc1
8ff08098:	1366488a 	beq	k1,a2,8ff1a2c4 <save_tcsr+0xcb80>
8ff0809c:	50a41f9b 	beql	a1,a0,8ff0ff0c <save_tcsr+0x27c8>
8ff080a0:	00037fda 	0x37fda
8ff080a4:	60650005 	0x60650005
8ff080a8:	00262f5c 	0x262f5c
8ff080ac:	59512d5f 	0x59512d5f
8ff080b0:	00060006 	srlv	zero,a2,zero
8ff080b4:	26af52a1 	addiu	t7,s5,21153
8ff080b8:	2ce303ca 	sltiu	v1,a3,970
8ff080bc:	7b4c54b3 	0x7b4c54b3
8ff080c0:	00070008 	0x70008
8ff080c4:	531d7c36 	beql	t8,sp,8ff271a0 <save_tcsr+0x19a5c>
8ff080c8:	04b42b4d 	0x4b42b4d
8ff080cc:	452520c2 	0x452520c2
8ff080d0:	000c6885 	0xc6885
8ff080d4:	5f3e0007 	0x5f3e0007
8ff080d8:	177b3adb 	bne	k1,k1,8ff16c48 <save_tcsr+0x9504>
8ff080dc:	2c710aef 	sltiu	s1,v1,2799
8ff080e0:	6cea4d17 	0x6cea4d17
8ff080e4:	0008000f 	0x8000f
8ff080e8:	538f7511 	beql	gp,t7,8ff25530 <save_tcsr+0x17dec>
8ff080ec:	131632e9 	beq	t8,s6,8ff14c94 <save_tcsr+0x7550>
8ff080f0:	2a460bf7 	slti	a2,s2,3063
8ff080f4:	64cd47e0 	0x64cd47e0
8ff080f8:	00090013 	0x90013
8ff080fc:	55ba7409 	bnel	t5,k0,8ff25124 <save_tcsr+0x179e0>
8ff08100:	1b333820 	0x1b333820
8ff08104:	1cc00115 	bgtz	a2,8ff0855c <config+0x40>
8ff08108:	525637d4 	beql	s2,s6,8ff1605c <save_tcsr+0x8918>
8ff0810c:	00176c4f 	0x176c4f
8ff08110:	7eeb000b 	0x7eeb000b
8ff08114:	482c6340 	0x482c6340
8ff08118:	13b12daa 	beq	sp,s1,8ff137c4 <save_tcsr+0x6080>
8ff0811c:	1eb405c1 	0x1eb405c1
8ff08120:	4f2d372c 	c3	0x12d372c
8ff08124:	7dde66bd 	0x7dde66bd
8ff08128:	000b001c 	0xb001c
8ff0812c:	614c7a3f 	0x614c7a3f
8ff08130:	30d348d4 	andi	s3,a2,0x48d4
8ff08134:	02221943 	0x2221943
8ff08138:	2ae71496 	slti	a3,s7,5270
8ff0813c:	566540d6 	bnel	s3,a1,8ff18498 <save_tcsr+0xad54>
8ff08140:	00226b98 	0x226b98
8ff08144:	6b6a000c 	0x6b6a000c
8ff08148:	3f2a5519 	0x3f2a5519
8ff0814c:	1468299b 	bne	v1,t0,8ff127bc <save_tcsr+0x5078>
8ff08150:	14f60072 	bne	a3,s6,8ff0831c <Ivw275F8CA73CA101486161704102408A5E3+0x288>
8ff08154:	3d062926 	0x3d062926
8ff08158:	63dc5097 	0x63dc5097
8ff0815c:	002776d7 	0x2776d7
8ff08160:	7f8e000e 	0x7f8e000e
8ff08164:	56da6b0a 	bnel	s6,k0,8ff22d90 <save_tcsr+0x1564c>
8ff08168:	2f6942fa 	sltiu	t1,k1,17146
8ff0816c:	09291c24 	j	84a47090 <interface-0xb4b8f70>
8ff08170:	1bf9098b 	0x1bf9098b
8ff08174:	400d2e24 	0x400d2e24
8ff08178:	632151b6 	0x632151b6
8ff0817c:	002e7450 	0x2e7450
8ff08180:	7675000f 	jalx	89d4003c <interface-0x61bffc4>
8ff08184:	51dc6407 	beql	t6,gp,8ff211a4 <save_tcsr+0x13a60>
8ff08188:	2e4a3ff3 	sltiu	t2,s2,16371
8ff0818c:	0bb01cdf 	j	8ec0737c <interface-0x12f8c84>
8ff08190:	16000545 	bnez	s0,8ff096a8 <pIvwObjBuf+0xfe8>
8ff08194:	36d02683 	ori	s0,s6,0x2683
8ff08198:	56cd46e8 	bnel	s6,t5,8ff19d3c <save_tcsr+0xc5f8>
8ff0819c:	7601667f 	jalx	880599fc <interface-0x7ea6604>
8ff081a0:	00110035 	0x110035
8ff081a4:	6a007abb 	0x6a007abb
8ff081a8:	4930597d 	0x4930597d
8ff081ac:	29333918 	slti	s3,t1,14616
8ff081b0:	09ff1981 	j	87fc6604 <interface-0x7f399fc>
8ff081b4:	14750552 	bne	v1,s5,8ff09700 <pIvwObjBuf+0x1040>
8ff081b8:	3232236a 	andi	s2,s1,0x236a
8ff081bc:	4f4140cf 	c3	0x14140cf
8ff081c0:	6baa5d8a 	0x6baa5d8a
8ff081c4:	003d79a2 	0x3d79a2
8ff081c8:	7aae0013 	0x7aae0013
8ff081cc:	5c966b8b 	0x5c966b8b
8ff081d0:	3f314dce 	0x3f314dce
8ff081d4:	227630bf 	addi	s6,s3,12479
8ff081d8:	065e1456 	0x65e1456
8ff081dc:	151f0774 	bne	t0,ra,8ff09fb0 <pIvwObjBuf+0x18f0>
8ff081e0:	300722a5 	andi	a3,zero,0x22a5
8ff081e4:	4a5f3d44 	c2	0x5f3d44
8ff081e8:	642f5758 	0x642f5758
8ff081ec:	7d7b70e5 	0x7d7b70e5
8ff081f0:	00140046 	0x140046
8ff081f4:	6ae1788c 	0x6ae1788c
8ff081f8:	4ff95d5b 	c3	0x1f95d5b
8ff081fc:	35a142bc 	ori	at,t5,0x42bc
8ff08200:	1bd128a8 	0x1bd128a8
8ff08204:	02850f1b 	0x2850f1b
8ff08208:	164809f1 	bne	s2,t0,8ff0a9d0 <pIvwObjBuf+0x2310>
8ff0820c:	2e9c2281 	sltiu	gp,s4,8833
8ff08210:	467b3a9a 	c1	0x7b3a9a
8ff08214:	5de9523f 	0x5de9523f
8ff08218:	74ea6976 	jalx	83a9a5d8 <interface-0xc465a28>
8ff0821c:	00160050 	0x160050
8ff08220:	69b8760f 	0x69b8760f
8ff08224:	51645d7f 	beql	t3,a0,8ff1f824 <save_tcsr+0x120e0>
8ff08228:	39854566 	xori	a1,t4,0x4566
8ff0822c:	22172dc1 	addi	s7,s0,11713
8ff08230:	0b16168a 	j	8c585a28 <interface-0x397a5d8>
8ff08234:	0b820043 	j	8e08010c <interface-0x1e7fef4>
8ff08238:	21b616a8 	addi	s6,t5,5800
8ff0823c:	37872caa 	ori	a3,gp,0x2caa
8ff08240:	4cfb424d 	0x4cfb424d
8ff08244:	62135792 	0x62135792
8ff08248:	76d36c7e 	jalx	8b4db1f8 <interface-0x4a24e08>
8ff0824c:	001a005a 	0x1a005a
8ff08250:	747e7fbd 	jalx	81f9fef4 <interface-0xdf6010c>
8ff08254:	5e4a6958 	0x5e4a6958
8ff08258:	48795356 	0x48795356
8ff0825c:	33053db3 	andi	a1,t8,0x3db3
8ff08260:	1ded286e 	0x1ded286e
8ff08264:	092d1382 	j	84b44e08 <interface-0xb3bb1f8>
8ff08268:	0b3d0112 	j	8cf40448 <interface-0x2fbfbb8>
8ff0826c:	1f551553 	0x1f551553
8ff08270:	331d2943 	andi	sp,t8,0x2943
8ff08274:	46973ce3 	c1	0x973ce3
8ff08278:	59c55037 	0x59c55037
8ff0827c:	6cab6341 	0x6cab6341
8ff08280:	7f497603 	0x7f497603
8ff08284:	001c0066 	0x1c0066
8ff08288:	74c37eee 	jalx	830dfbb8 <interface-0xce20448>
8ff0828c:	60ab6aad 	0x60ab6aad
8ff08290:	4ce356bd 	0x4ce356bd
8ff08294:	3969431d 	xori	t1,t3,0x431d
8ff08298:	263b2fc9 	addiu	k1,s1,12233
8ff0829c:	13551cbf 	beq	k0,s5,8ff0f59c <save_tcsr+0x1e58>
8ff082a0:	00b709fd 	0xb709fd
8ff082a4:	11a3087f 	beq	t5,v1,8ff0a4a4 <pIvwObjBuf+0x1de4>
8ff082a8:	23ba1ab7 	addi	k0,sp,6839
8ff082ac:	35902cad 	ori	s0,t4,0x2cad
8ff082b0:	47263e63 	c1	0x1263e63
8ff082b4:	587f4fdb 	0x587f4fdb
8ff082b8:	699d6115 	0x699d6115
8ff082bc:	7a807215 	0x7a807215
8ff082c0:	001e0074 	teq	zero,s8,0x1
8ff082c4:	6e5d7781 	0x6e5d7781
8ff082c8:	5c466549 	0x5c466549
8ff082cc:	4a705353 	c2	0x705353
8ff082d0:	38da419d 	xori	k0,a2,0x419d
8ff082d4:	27813025 	addiu	at,gp,12325
8ff082d8:	16631eeb 	bne	s3,v1,8ff0fe88 <save_tcsr+0x2744>
8ff082dc:	05800deb 	bltz	t4,8ff0ba8c <pIvwObjBuf+0x33cc>
8ff082e0:	0b2a02dc 	j	8ca80b70 <interface-0x347f490>
8ff082e4:	1b9d136a 	0x1b9d136a
8ff082e8:	2bda23c2 	slti	k0,s8,9154
8ff082ec:	3be233e5 	xori	v0,ra,0x33e5
8ff082f0:	4bb843d3 	c2	0x1b843d3
8ff082f4:	5b5b5390 	0x5b5b5390
8ff082f8:	6ace631b 	0x6ace631b
8ff082fc:	7a117276 	0x7a117276
8ff08300:	00220082 	0x220082
8ff08304:	74d67d24 	jalx	8359f490 <interface-0xc960b70>
8ff08308:	64636c96 	0x64636c96
8ff0830c:	54265c3e 	bnel	at,a2,8ff1f408 <save_tcsr+0x11cc4>
8ff08310:	441e4c1b 	0x441e4c1b
8ff08314:	34483c2d 	ori	t0,v0,0x3c2d
8ff08318:	24a52c70 	addiu	a1,a1,11376
8ff0831c:	15321ce5 	bne	t1,s2,8ff0f6b4 <save_tcsr+0x1f70>
8ff08320:	05ef0d8a 	0x5ef0d8a
8ff08324:	092601a1 	j	84980684 <interface-0xb57f97c>
8ff08328:	180e10a0 	0x180e10a0
8ff0832c:	26c91f71 	addiu	t1,s6,8049
8ff08330:	35592e16 	ori	t9,t2,0x2e16
8ff08334:	43bf3c91 	c0	0x1bf3c91
8ff08338:	51fb4ae2 	beql	t7,k1,8ff1aec4 <save_tcsr+0xd780>
8ff0833c:	600f590a 	0x600f590a
8ff08340:	6dfc670a 	0x6dfc670a
8ff08344:	7bc274e3 	0x7bc274e3
8ff08348:	00260092 	0x260092
8ff0834c:	76da7e5f 	jalx	8b69f97c <interface-0x4860684>
8ff08350:	67f26f60 	0x67f26f60
8ff08354:	5937608f 	0x5937608f
8ff08358:	4aa751ea 	c2	0xa751ea
8ff0835c:	3c41436f 	0x3c41436f
8ff08360:	2e05351e 	sltiu	a1,s0,13598
8ff08364:	1ff126f6 	0x1ff126f6
8ff08368:	120418f6 	beq	s0,a0,8ff0e744 <save_tcsr+0x1000>
8ff0836c:	043e0b1d 	0x43e0b1d
8ff08370:	09620296 	j	85880a58 <interface-0xa67f5a8>
8ff08374:	16dd1024 	bne	s6,sp,8ff0c408 <pIvwObjBuf+0x3d48>
8ff08378:	24331d8c 	addiu	s3,at,7564
8ff0837c:	31672ad1 	andi	a3,t3,0x2ad1
8ff08380:	3e7737f3 	0x3e7737f3
8ff08384:	4b6544f2 	c2	0x16544f2
8ff08388:	583251d0 	0x583251d0
8ff0838c:	64df5e8d 	0x64df5e8d
8ff08390:	716b6b29 	0x716b6b29
8ff08394:	7dd877a5 	0x7dd877a5
8ff08398:	002a00a4 	0x2a00a4
8ff0839c:	769e7d6a 	jalx	8a79f5a8 <interface-0x5760a58>
8ff083a0:	69236fdc 	0x69236fdc
8ff083a4:	5bcd6274 	0x5bcd6274
8ff083a8:	4e99552f 	c3	0x99552f
8ff083ac:	4189480d 	0x4189480d
8ff083b0:	349b3b0e 	ori	k1,a0,0x3b0e
8ff083b4:	27ce2e30 	addiu	t6,s8,11824
8ff083b8:	1b212173 	0x1b212173
8ff083bc:	0e9514d7 	jal	8a54535c <interface-0x59baca4>
8ff083c0:	0228085b 	0x228085b
8ff083c4:	0a260403 	j	8898100c <interface-0x757eff4>
8ff083c8:	16561042 	bne	s2,s6,8ff0c4d4 <pIvwObjBuf+0x3e14>
8ff083cc:	22681c62 	addi	t0,s3,7266
8ff083d0:	2e5d2866 	sltiu	sp,s2,10342
8ff083d4:	3a35344d 	xori	s5,s1,0x344d
8ff083d8:	45f24017 	0x45f24017
8ff083dc:	51934bc6 	beql	t4,s3,8ff1b2f8 <save_tcsr+0xdbb4>
8ff083e0:	5d195759 	0x5d195759
8ff083e4:	688462d2 	0x688462d2
8ff083e8:	73d56e30 	0x73d56e30
8ff083ec:	7f0d7974 	0x7f0d7974
8ff083f0:	002e00b8 	0x2e00b8
8ff083f4:	75da7bfd 	jalx	8769eff4 <interface-0x886100c>
8ff083f8:	69aa6fbe 	0x69aa6fbe
8ff083fc:	5d98639e 	0x5d98639e
8ff08400:	51a3579a 	beql	t5,v1,8ff1e26c <save_tcsr+0x10b28>
8ff08404:	45cb4bb3 	0x45cb4bb3
8ff08408:	3a0e3fe9 	xori	t6,s0,0x3fe9
8ff0840c:	2e6d343a 	sltiu	t5,s3,13370
8ff08410:	22e728a7 	addi	a3,s7,10407
8ff08414:	177c1d2e 	bne	k1,gp,8ff0f8d0 <save_tcsr+0x218c>
8ff08418:	0c2b11d0 	jal	80ac4740 <interface-0xf43b8c0>
8ff0841c:	00f3068c 	syscall	0x3cc1a
8ff08420:	0a2c04a0 	j	88b01280 <interface-0x73fed80>
8ff08424:	15320fb2 	bne	t1,s2,8ff0c2f0 <pIvwObjBuf+0x3c30>
8ff08428:	201f1aab 	addi	ra,zero,6827
8ff0842c:	2af5258d 	slti	s5,s7,9613
8ff08430:	35b33057 	ori	s3,t5,0x3057
8ff08434:	405a3b0a 	0x405a3b0a
8ff08438:	4aeb45a5 	c2	0xeb45a5
8ff0843c:	5565502b 	bnel	t3,a1,8ff1c4ec <save_tcsr+0xeda8>
8ff08440:	5fc95a9a 	0x5fc95a9a
8ff08444:	6a1864f3 	0x6a1864f3
8ff08448:	74516f37 	jalx	8145bcdc <interface-0xeaa4324>
8ff0844c:	7e767966 	0x7e767966
8ff08450:	003200ce 	0x3200ce
8ff08454:	75d47b60 	jalx	8751ed80 <interface-0x89e1280>
8ff08458:	6ace704e 	0x6ace704e
8ff0845c:	5fe16555 	0x5fe16555
8ff08460:	550b5a73 	bnel	t0,t3,8ff1ee30 <save_tcsr+0x116ec>
8ff08464:	4a4d4fa9 	c2	0x4d4fa9
8ff08468:	3fa644f6 	0x3fa644f6
8ff0846c:	35153a5b 	ori	s5,t0,0x3a5b
8ff08470:	2a9b2fd5 	slti	k1,s4,12245
8ff08474:	20372566 	addi	s7,at,9574
8ff08478:	15e81b0d 	bne	t7,t0,8ff0f0b0 <save_tcsr+0x196c>
8ff0847c:	0baf10c9 	j	8ebc4324 <interface-0x133bcdc>
8ff08480:	018a069a 	0x18a069a
8ff08484:	08860380 	j	82180e00 <interface-0xdd7f200>
8ff08488:	12820d86 	beq	s4,v0,8ff0baa4 <pIvwObjBuf+0x33e4>
8ff0848c:	1c691778 	0x1c691778
8ff08490:	263d2156 	addiu	sp,s1,8534
8ff08494:	2ffe2b20 	sltiu	s8,ra,11040
8ff08498:	39ac34d7 	xori	t4,t5,0x34d7
8ff0849c:	43473e7c 	c0	0x1473e7c
8ff084a0:	4cd0480d 	0x4cd0480d
8ff084a4:	5646518d 	bnel	s2,a2,8ff1cadc <save_tcsr+0xf398>
8ff084a8:	5faa5afa 	0x5faa5afa
8ff084ac:	68fd6456 	0x68fd6456
8ff084b0:	723e6da0 	0x723e6da0
8ff084b4:	7b6f76d9 	0x7b6f76d9
	...
反汇编 .bss 节：

8ff084c0 <__bss_end>:
8ff084c0:	00000000 	nop

8ff084c4 <open_cnt>:
8ff084c4:	00000000 	nop

8ff084c8 <current_mode>:
8ff084c8:	00000000 	nop

8ff084cc <g_record_buffer>:
8ff084cc:	00000000 	nop

8ff084d0 <g_record_len>:
8ff084d0:	00000000 	nop

8ff084d4 <g_desc_addr>:
8ff084d4:	00000000 	nop

8ff084d8 <g_desc_size>:
8ff084d8:	00000000 	nop

8ff084dc <h_handler>:
8ff084dc:	00000000 	nop

8ff084e0 <g_sleep_buffer>:
8ff084e0:	00000000 	nop

8ff084e4 <voice_wakeup_enabled>:
8ff084e4:	00000000 	nop

8ff084e8 <dmic_record_enabled>:
	...

8ff084f0 <dmic_current_state>:
8ff084f0:	00000000 	nop

8ff084f4 <cur_thr_value>:
8ff084f4:	00000000 	nop

8ff084f8 <wakeup_failed_times>:
8ff084f8:	00000000 	nop

8ff084fc <dmic_recommend_thr>:
8ff084fc:	00000000 	nop

8ff08500 <last_dma_count>:
	...

8ff08510 <dma_dst_buf>:
8ff08510:	00000000 	nop

8ff08514 <dma_dst_buf_size>:
8ff08514:	00000000 	nop

8ff08518 <src_buf>:
8ff08518:	00000000 	nop

8ff0851c <config>:
	...

8ff08560 <g_desc>:
8ff08560:	00000000 	nop

8ff08564 <sleep_desc>:
	...

8ff08670 <old_config>:
	...

8ff08684 <rtc_config>:
	...

8ff086a0 <total_process_len>:
	...

8ff086c0 <pIvwObjBuf>:
	...

8ff0d6c0 <nReisdentBuf>:
	...

8ff0d700 <pIvwObj>:
	...

8ff0d720 <pResidentRAM>:
8ff0d720:	00000000 	nop

8ff0d724 <rx_fifo>:
	...

8ff0d740 <clk_enabled>:
8ff0d740:	00000000 	nop

8ff0d744 <save_tcsr>:
	...
反汇编 .pdr 节：

00000000 <.pdr>:
   0:	8ff00000 	lw	s0,0(ra)
	...
  20:	8ff00060 	lw	s0,96(ra)
	...
  38:	0000001d 	0x1d
  3c:	0000001f 	0x1f
  40:	8ff00068 	lw	s0,104(ra)
	...
  58:	0000001d 	0x1d
  5c:	0000001f 	0x1f
  60:	8ff000f8 	lw	s0,248(ra)
	...
  78:	0000001d 	0x1d
  7c:	0000001f 	0x1f
  80:	8ff00100 	lw	s0,256(ra)
	...
  98:	0000001d 	0x1d
  9c:	0000001f 	0x1f
  a0:	8ff00120 	lw	s0,288(ra)
	...
  b8:	0000001d 	0x1d
  bc:	0000001f 	0x1f
  c0:	8ff00130 	lw	s0,304(ra)
	...
  d8:	0000001d 	0x1d
  dc:	0000001f 	0x1f
  e0:	8ff00150 	lw	s0,336(ra)
	...
  f8:	0000001d 	0x1d
  fc:	0000001f 	0x1f
 100:	8ff0015c 	lw	s0,348(ra)
	...
 118:	0000001d 	0x1d
 11c:	0000001f 	0x1f
 120:	8ff00170 	lw	s0,368(ra)
	...
 138:	0000001d 	0x1d
 13c:	0000001f 	0x1f
 140:	8ff00184 	lw	s0,388(ra)
	...
 158:	0000001d 	0x1d
 15c:	0000001f 	0x1f
 160:	8ff001a4 	lw	s0,420(ra)
	...
 178:	0000001d 	0x1d
 17c:	0000001f 	0x1f
 180:	8ff001c4 	lw	s0,452(ra)
	...
 198:	0000001d 	0x1d
 19c:	0000001f 	0x1f
 1a0:	8ff001d8 	lw	s0,472(ra)
	...
 1b8:	0000001d 	0x1d
 1bc:	0000001f 	0x1f
 1c0:	8ff001e8 	lw	s0,488(ra)
	...
 1d8:	0000001d 	0x1d
 1dc:	0000001f 	0x1f
 1e0:	8ff001f4 	lw	s0,500(ra)
 1e4:	80000000 	lb	zero,0(zero)
 1e8:	fffffff8 	sdc3	$31,-8(ra)
	...
 1f4:	00000018 	mult	zero,zero
 1f8:	0000001d 	0x1d
 1fc:	0000001f 	0x1f
 200:	8ff00218 	lw	s0,536(ra)
 204:	80070000 	lb	a3,0(zero)
 208:	fffffffc 	sdc3	$31,-4(ra)
	...
 214:	00000020 	add	zero,zero,zero
 218:	0000001d 	0x1d
 21c:	0000001f 	0x1f
 220:	8ff002e0 	lw	s0,736(ra)
 224:	80030000 	lb	v1,0(zero)
 228:	fffffff8 	sdc3	$31,-8(ra)
	...
 234:	00000020 	add	zero,zero,zero
 238:	0000001d 	0x1d
 23c:	0000001f 	0x1f
 240:	8ff00330 	lw	s0,816(ra)
	...
 258:	0000001d 	0x1d
 25c:	0000001f 	0x1f
 260:	8ff00338 	lw	s0,824(ra)
	...
 278:	0000001d 	0x1d
 27c:	0000001f 	0x1f
 280:	8ff00340 	lw	s0,832(ra)
	...
 298:	0000001d 	0x1d
 29c:	0000001f 	0x1f
 2a0:	8ff00350 	lw	s0,848(ra)
 2a4:	80000000 	lb	zero,0(zero)
 2a8:	fffffff8 	sdc3	$31,-8(ra)
	...
 2b4:	00000018 	mult	zero,zero
 2b8:	0000001d 	0x1d
 2bc:	0000001f 	0x1f
 2c0:	8ff003fc 	lw	s0,1020(ra)
 2c4:	80010000 	lb	at,0(zero)
 2c8:	fffffffc 	sdc3	$31,-4(ra)
	...
 2d4:	00000020 	add	zero,zero,zero
 2d8:	0000001d 	0x1d
 2dc:	0000001f 	0x1f
 2e0:	8ff005b0 	lw	s0,1456(ra)
 2e4:	80010000 	lb	at,0(zero)
 2e8:	fffffffc 	sdc3	$31,-4(ra)
	...
 2f4:	00000018 	mult	zero,zero
 2f8:	0000001d 	0x1d
 2fc:	0000001f 	0x1f
 300:	8ff00694 	lw	s0,1684(ra)
 304:	80000000 	lb	zero,0(zero)
 308:	fffffff8 	sdc3	$31,-8(ra)
	...
 314:	00000018 	mult	zero,zero
 318:	0000001d 	0x1d
 31c:	0000001f 	0x1f
 320:	8ff00760 	lw	s0,1888(ra)
	...
 338:	0000001d 	0x1d
 33c:	0000001f 	0x1f
 340:	8ff00768 	lw	s0,1896(ra)
	...
 358:	0000001d 	0x1d
 35c:	0000001f 	0x1f
 360:	8ff00770 	lw	s0,1904(ra)
	...
 378:	0000001d 	0x1d
 37c:	0000001f 	0x1f
 380:	8ff00778 	lw	s0,1912(ra)
	...
 398:	0000001d 	0x1d
 39c:	0000001f 	0x1f
 3a0:	8ff00864 	lw	s0,2148(ra)
	...
 3b8:	0000001d 	0x1d
 3bc:	0000001f 	0x1f
 3c0:	8ff008e4 	lw	s0,2276(ra)
 3c4:	80000000 	lb	zero,0(zero)
 3c8:	fffffff8 	sdc3	$31,-8(ra)
	...
 3d4:	00000018 	mult	zero,zero
 3d8:	0000001d 	0x1d
 3dc:	0000001f 	0x1f
 3e0:	8ff00954 	lw	s0,2388(ra)
	...
 3f4:	00000008 	jr	zero
 3f8:	0000001d 	0x1d
 3fc:	0000001f 	0x1f
 400:	8ff009f4 	lw	s0,2548(ra)
 404:	80010000 	lb	at,0(zero)
 408:	fffffffc 	sdc3	$31,-4(ra)
	...
 414:	00000018 	mult	zero,zero
 418:	0000001d 	0x1d
 41c:	0000001f 	0x1f
 420:	8ff00c10 	lw	s0,3088(ra)
	...
 438:	0000001d 	0x1d
 43c:	0000001f 	0x1f
 440:	8ff00c54 	lw	s0,3156(ra)
	...
 458:	0000001d 	0x1d
 45c:	0000001f 	0x1f
 460:	8ff00c74 	lw	s0,3188(ra)
	...
 478:	0000001d 	0x1d
 47c:	0000001f 	0x1f
 480:	8ff00cd4 	lw	s0,3284(ra)
 484:	80000000 	lb	zero,0(zero)
 488:	fffffff8 	sdc3	$31,-8(ra)
	...
 494:	00000018 	mult	zero,zero
 498:	0000001d 	0x1d
 49c:	0000001f 	0x1f
 4a0:	8ff00cfc 	lw	s0,3324(ra)
 4a4:	80010000 	lb	at,0(zero)
 4a8:	fffffffc 	sdc3	$31,-4(ra)
	...
 4b4:	00000018 	mult	zero,zero
 4b8:	0000001d 	0x1d
 4bc:	0000001f 	0x1f
 4c0:	8ff00d94 	lw	s0,3476(ra)
 4c4:	80000000 	lb	zero,0(zero)
 4c8:	fffffff8 	sdc3	$31,-8(ra)
	...
 4d4:	00000020 	add	zero,zero,zero
 4d8:	0000001d 	0x1d
 4dc:	0000001f 	0x1f
 4e0:	8ff00f4c 	lw	s0,3916(ra)
	...
 4f8:	0000001d 	0x1d
 4fc:	0000001f 	0x1f
 500:	8ff00f70 	lw	s0,3952(ra)
	...
 518:	0000001d 	0x1d
 51c:	0000001f 	0x1f
 520:	8ff00f7c 	lw	s0,3964(ra)
	...
 538:	0000001d 	0x1d
 53c:	0000001f 	0x1f
 540:	8ff00f84 	lw	s0,3972(ra)
	...
 558:	0000001d 	0x1d
 55c:	0000001f 	0x1f
 560:	8ff00f90 	lw	s0,3984(ra)
	...
 578:	0000001d 	0x1d
 57c:	0000001f 	0x1f
 580:	8ff00f98 	lw	s0,3992(ra)
 584:	80070000 	lb	a3,0(zero)
 588:	fffffffc 	sdc3	$31,-4(ra)
	...
 594:	00000020 	add	zero,zero,zero
 598:	0000001d 	0x1d
 59c:	0000001f 	0x1f
 5a0:	8ff0109c 	lw	s0,4252(ra)
 5a4:	800f0000 	lb	t7,0(zero)
 5a8:	fffffff8 	sdc3	$31,-8(ra)
	...
 5b4:	00000028 	0x28
 5b8:	0000001d 	0x1d
 5bc:	0000001f 	0x1f
 5c0:	8ff01188 	lw	s0,4488(ra)
 5c4:	80010000 	lb	at,0(zero)
 5c8:	fffffffc 	sdc3	$31,-4(ra)
	...
 5d4:	00000018 	mult	zero,zero
 5d8:	0000001d 	0x1d
 5dc:	0000001f 	0x1f
 5e0:	8ff012a0 	lw	s0,4768(ra)
	...
 5f8:	0000001d 	0x1d
 5fc:	0000001f 	0x1f
 600:	8ff012d4 	lw	s0,4820(ra)
 604:	80010000 	lb	at,0(zero)
 608:	fffffffc 	sdc3	$31,-4(ra)
	...
 614:	00000018 	mult	zero,zero
 618:	0000001d 	0x1d
 61c:	0000001f 	0x1f
 620:	8ff01314 	lw	s0,4884(ra)
 624:	80070000 	lb	a3,0(zero)
 628:	fffffffc 	sdc3	$31,-4(ra)
	...
 634:	00000020 	add	zero,zero,zero
 638:	0000001d 	0x1d
 63c:	0000001f 	0x1f
 640:	8ff01394 	lw	s0,5012(ra)
 644:	80010000 	lb	at,0(zero)
 648:	fffffffc 	sdc3	$31,-4(ra)
	...
 654:	00000018 	mult	zero,zero
 658:	0000001d 	0x1d
 65c:	0000001f 	0x1f
 660:	8ff013e8 	lw	s0,5096(ra)
 664:	80030000 	lb	v1,0(zero)
 668:	fffffff8 	sdc3	$31,-8(ra)
	...
 674:	00000020 	add	zero,zero,zero
 678:	0000001d 	0x1d
 67c:	0000001f 	0x1f
 680:	8ff014a8 	lw	s0,5288(ra)
 684:	80000000 	lb	zero,0(zero)
 688:	fffffff8 	sdc3	$31,-8(ra)
	...
 694:	00000018 	mult	zero,zero
 698:	0000001d 	0x1d
 69c:	0000001f 	0x1f
 6a0:	8ff014d0 	lw	s0,5328(ra)
	...
 6b8:	0000001d 	0x1d
 6bc:	0000001f 	0x1f
 6c0:	8ff014d8 	lw	s0,5336(ra)
 6c4:	80000000 	lb	zero,0(zero)
 6c8:	fffffff8 	sdc3	$31,-8(ra)
	...
 6d4:	00000018 	mult	zero,zero
 6d8:	0000001d 	0x1d
 6dc:	0000001f 	0x1f
 6e0:	8ff01540 	lw	s0,5440(ra)
	...
 6f8:	0000001d 	0x1d
 6fc:	0000001f 	0x1f
 700:	8ff015dc 	lw	s0,5596(ra)
	...
 718:	0000001d 	0x1d
 71c:	0000001f 	0x1f
 720:	8ff01780 	lw	s0,6016(ra)
	...
 738:	0000001d 	0x1d
 73c:	0000001f 	0x1f
 740:	8ff017b4 	lw	s0,6068(ra)
	...
 758:	0000001d 	0x1d
 75c:	0000001f 	0x1f
 760:	8ff017dc 	lw	s0,6108(ra)
	...
 778:	0000001d 	0x1d
 77c:	0000001f 	0x1f
 780:	8ff01804 	lw	s0,6148(ra)
	...
 798:	0000001d 	0x1d
 79c:	0000001f 	0x1f
 7a0:	8ff01860 	lw	s0,6240(ra)
	...
 7b8:	0000001d 	0x1d
 7bc:	0000001f 	0x1f
 7c0:	8ff0186c 	lw	s0,6252(ra)
	...
 7d8:	0000001d 	0x1d
 7dc:	0000001f 	0x1f
 7e0:	8ff01890 	lw	s0,6288(ra)
	...
 7f8:	0000001d 	0x1d
 7fc:	0000001f 	0x1f
 800:	8ff018ac 	lw	s0,6316(ra)
	...
 818:	0000001d 	0x1d
 81c:	0000001f 	0x1f
 820:	8ff018b4 	lw	s0,6324(ra)
 824:	80000000 	lb	zero,0(zero)
 828:	fffffff8 	sdc3	$31,-8(ra)
	...
 834:	00000018 	mult	zero,zero
 838:	0000001d 	0x1d
 83c:	0000001f 	0x1f
 840:	8ff01908 	lw	s0,6408(ra)
 844:	801f0000 	lb	ra,0(zero)
 848:	fffffffc 	sdc3	$31,-4(ra)
	...
 854:	00000038 	0x38
 858:	0000001d 	0x1d
 85c:	0000001f 	0x1f
 860:	8ff01a3c 	lw	s0,6716(ra)
 864:	803f0000 	lb	ra,0(at)
 868:	fffffff8 	sdc3	$31,-8(ra)
	...
 874:	00000048 	0x48
 878:	0000001d 	0x1d
 87c:	0000001f 	0x1f
 880:	8ff01b48 	lw	s0,6984(ra)
 884:	80000000 	lb	zero,0(zero)
 888:	fffffff8 	sdc3	$31,-8(ra)
	...
 894:	00000018 	mult	zero,zero
 898:	0000001d 	0x1d
 89c:	0000001f 	0x1f
 8a0:	8ff01b88 	lw	s0,7048(ra)
 8a4:	80030000 	lb	v1,0(zero)
 8a8:	fffffff8 	sdc3	$31,-8(ra)
	...
 8b4:	00000020 	add	zero,zero,zero
 8b8:	0000001d 	0x1d
 8bc:	0000001f 	0x1f
 8c0:	8ff01c94 	lw	s0,7316(ra)
 8c4:	80070000 	lb	a3,0(zero)
 8c8:	fffffffc 	sdc3	$31,-4(ra)
	...
 8d4:	00000028 	0x28
 8d8:	0000001d 	0x1d
 8dc:	0000001f 	0x1f
 8e0:	8ff01dd0 	lw	s0,7632(ra)
 8e4:	80070000 	lb	a3,0(zero)
 8e8:	fffffffc 	sdc3	$31,-4(ra)
	...
 8f4:	00000020 	add	zero,zero,zero
 8f8:	0000001d 	0x1d
 8fc:	0000001f 	0x1f
 900:	8ff01ed0 	lw	s0,7888(ra)
 904:	80010000 	lb	at,0(zero)
 908:	fffffffc 	sdc3	$31,-4(ra)
	...
 914:	00000018 	mult	zero,zero
 918:	0000001d 	0x1d
 91c:	0000001f 	0x1f
 920:	8ff01fa0 	lw	s0,8096(ra)
	...
 938:	0000001d 	0x1d
 93c:	0000001f 	0x1f
 940:	8ff01fd4 	lw	s0,8148(ra)
	...
 958:	0000001d 	0x1d
 95c:	0000001f 	0x1f
 960:	8ff02010 	lw	s0,8208(ra)
	...
 978:	0000001d 	0x1d
 97c:	0000001f 	0x1f
 980:	8ff02084 	lw	s0,8324(ra)
 984:	80000000 	lb	zero,0(zero)
 988:	fffffff8 	sdc3	$31,-8(ra)
	...
 994:	00000018 	mult	zero,zero
 998:	0000001d 	0x1d
 99c:	0000001f 	0x1f
 9a0:	8ff020e0 	lw	s0,8416(ra)
	...
 9b8:	0000001d 	0x1d
 9bc:	0000001f 	0x1f
 9c0:	8ff0216c 	lw	s0,8556(ra)
	...
 9d8:	0000001d 	0x1d
 9dc:	0000001f 	0x1f
 9e0:	8ff021d0 	lw	s0,8656(ra)
 9e4:	80030000 	lb	v1,0(zero)
 9e8:	fffffffc 	sdc3	$31,-4(ra)
	...
 9f4:	00000030 	tge	zero,zero
 9f8:	0000001d 	0x1d
 9fc:	0000001f 	0x1f
 a00:	8ff024c4 	lw	s0,9412(ra)
 a04:	80000000 	lb	zero,0(zero)
 a08:	fffffffc 	sdc3	$31,-4(ra)
	...
 a14:	00000028 	0x28
 a18:	0000001d 	0x1d
 a1c:	0000001f 	0x1f
 a20:	8ff02538 	lw	s0,9528(ra)
 a24:	80000000 	lb	zero,0(zero)
 a28:	fffffffc 	sdc3	$31,-4(ra)
	...
 a34:	00000020 	add	zero,zero,zero
 a38:	0000001d 	0x1d
 a3c:	0000001f 	0x1f
 a40:	8ff025e0 	lw	s0,9696(ra)
 a44:	80000000 	lb	zero,0(zero)
 a48:	fffffffc 	sdc3	$31,-4(ra)
	...
 a54:	00000018 	mult	zero,zero
 a58:	0000001d 	0x1d
 a5c:	0000001f 	0x1f
 a60:	8ff02670 	lw	s0,9840(ra)
 a64:	80000000 	lb	zero,0(zero)
 a68:	fffffffc 	sdc3	$31,-4(ra)
	...
 a74:	00000018 	mult	zero,zero
 a78:	0000001d 	0x1d
 a7c:	0000001f 	0x1f
 a80:	8ff026c0 	lw	s0,9920(ra)
	...
 a98:	0000001d 	0x1d
 a9c:	0000001f 	0x1f
 aa0:	8ff026fc 	lw	s0,9980(ra)
 aa4:	00030000 	sll	zero,v1,0x0
 aa8:	fffffffc 	sdc3	$31,-4(ra)
	...
 ab4:	00000008 	jr	zero
 ab8:	0000001d 	0x1d
 abc:	0000001f 	0x1f
 ac0:	8ff028c8 	lw	s0,10440(ra)
 ac4:	c0ff0000 	ll	ra,0(a3)
 ac8:	fffffffc 	sdc3	$31,-4(ra)
	...
 ad4:	00000048 	0x48
 ad8:	0000001d 	0x1d
 adc:	0000001f 	0x1f
 ae0:	8ff02a58 	lw	s0,10840(ra)
 ae4:	80ff0000 	lb	ra,0(a3)
 ae8:	fffffffc 	sdc3	$31,-4(ra)
	...
 af4:	00000058 	0x58
 af8:	0000001d 	0x1d
 afc:	0000001f 	0x1f
 b00:	8ff02bb4 	lw	s0,11188(ra)
 b04:	800f0000 	lb	t7,0(zero)
 b08:	fffffffc 	sdc3	$31,-4(ra)
	...
 b14:	00000028 	0x28
 b18:	0000001d 	0x1d
 b1c:	0000001f 	0x1f
 b20:	8ff02ce0 	lw	s0,11488(ra)
 b24:	801f0000 	lb	ra,0(zero)
 b28:	fffffffc 	sdc3	$31,-4(ra)
	...
 b34:	00000028 	0x28
 b38:	0000001d 	0x1d
 b3c:	0000001f 	0x1f
 b40:	8ff02dd4 	lw	s0,11732(ra)
	...
 b58:	0000001d 	0x1d
 b5c:	0000001f 	0x1f
 b60:	8ff02dfc 	lw	s0,11772(ra)
 b64:	80070000 	lb	a3,0(zero)
 b68:	fffffffc 	sdc3	$31,-4(ra)
	...
 b74:	00000020 	add	zero,zero,zero
 b78:	0000001d 	0x1d
 b7c:	0000001f 	0x1f
 b80:	8ff02ea4 	lw	s0,11940(ra)
 b84:	c0ff0000 	ll	ra,0(a3)
 b88:	fffffffc 	sdc3	$31,-4(ra)
	...
 b94:	00000058 	0x58
 b98:	0000001d 	0x1d
 b9c:	0000001f 	0x1f
 ba0:	8ff032fc 	lw	s0,13052(ra)
	...
 bb8:	0000001d 	0x1d
 bbc:	0000001f 	0x1f
 bc0:	8ff0332c 	lw	s0,13100(ra)
 bc4:	80010000 	lb	at,0(zero)
 bc8:	fffffffc 	sdc3	$31,-4(ra)
	...
 bd4:	00000020 	add	zero,zero,zero
 bd8:	0000001d 	0x1d
 bdc:	0000001f 	0x1f
 be0:	8ff033d8 	lw	s0,13272(ra)
 be4:	80070000 	lb	a3,0(zero)
 be8:	fffffffc 	sdc3	$31,-4(ra)
	...
 bf4:	00000028 	0x28
 bf8:	0000001d 	0x1d
 bfc:	0000001f 	0x1f
 c00:	8ff034b0 	lw	s0,13488(ra)
	...
 c18:	0000001d 	0x1d
 c1c:	0000001f 	0x1f
 c20:	8ff034f4 	lw	s0,13556(ra)
 c24:	80010000 	lb	at,0(zero)
 c28:	fffffffc 	sdc3	$31,-4(ra)
	...
 c34:	00000018 	mult	zero,zero
 c38:	0000001d 	0x1d
 c3c:	0000001f 	0x1f
 c40:	8ff03558 	lw	s0,13656(ra)
 c44:	80010000 	lb	at,0(zero)
 c48:	fffffffc 	sdc3	$31,-4(ra)
	...
 c54:	00000018 	mult	zero,zero
 c58:	0000001d 	0x1d
 c5c:	0000001f 	0x1f
 c60:	8ff035ec 	lw	s0,13804(ra)
 c64:	80010000 	lb	at,0(zero)
 c68:	fffffffc 	sdc3	$31,-4(ra)
	...
 c74:	00000028 	0x28
 c78:	0000001d 	0x1d
 c7c:	0000001f 	0x1f
 c80:	8ff0371c 	lw	s0,14108(ra)
 c84:	40ff0000 	0x40ff0000
 c88:	fffffffc 	sdc3	$31,-4(ra)
	...
 c94:	00000050 	0x50
 c98:	0000001d 	0x1d
 c9c:	0000001f 	0x1f
 ca0:	8ff03e50 	lw	s0,15952(ra)
	...
 cb8:	0000001d 	0x1d
 cbc:	0000001f 	0x1f
 cc0:	8ff03f48 	lw	s0,16200(ra)
 cc4:	80010000 	lb	at,0(zero)
 cc8:	fffffffc 	sdc3	$31,-4(ra)
	...
 cd4:	00000018 	mult	zero,zero
 cd8:	0000001d 	0x1d
 cdc:	0000001f 	0x1f
 ce0:	8ff03fe8 	lw	s0,16360(ra)
 ce4:	803f0000 	lb	ra,0(at)
 ce8:	fffffffc 	sdc3	$31,-4(ra)
	...
 cf4:	00000040 	ssnop
 cf8:	0000001d 	0x1d
 cfc:	0000001f 	0x1f
 d00:	8ff04270 	lw	s0,17008(ra)
 d04:	801f0000 	lb	ra,0(zero)
 d08:	fffffffc 	sdc3	$31,-4(ra)
	...
 d14:	00000028 	0x28
 d18:	0000001d 	0x1d
 d1c:	0000001f 	0x1f
 d20:	8ff044f0 	lw	s0,17648(ra)
 d24:	803f0000 	lb	ra,0(at)
 d28:	fffffffc 	sdc3	$31,-4(ra)
	...
 d34:	00000030 	tge	zero,zero
 d38:	0000001d 	0x1d
 d3c:	0000001f 	0x1f
 d40:	8ff046c8 	lw	s0,18120(ra)
 d44:	c0ff0000 	ll	ra,0(a3)
 d48:	fffffffc 	sdc3	$31,-4(ra)
	...
 d54:	00000038 	0x38
 d58:	0000001d 	0x1d
 d5c:	0000001f 	0x1f
 d60:	8ff04ab0 	lw	s0,19120(ra)
	...
 d78:	0000001d 	0x1d
 d7c:	0000001f 	0x1f
 d80:	8ff04c78 	lw	s0,19576(ra)
	...
 d94:	00000008 	jr	zero
 d98:	0000001d 	0x1d
 d9c:	0000001f 	0x1f
 da0:	8ff04df0 	lw	s0,19952(ra)
 da4:	801f0000 	lb	ra,0(zero)
 da8:	fffffffc 	sdc3	$31,-4(ra)
	...
 db4:	00000030 	tge	zero,zero
 db8:	0000001d 	0x1d
 dbc:	0000001f 	0x1f
 dc0:	8ff05084 	lw	s0,20612(ra)
	...
 dd8:	0000001d 	0x1d
 ddc:	0000001f 	0x1f
 de0:	8ff050f8 	lw	s0,20728(ra)
	...
 df8:	0000001d 	0x1d
 dfc:	0000001f 	0x1f
 e00:	8ff05684 	lw	s0,22148(ra)
 e04:	80ff0000 	lb	ra,0(a3)
 e08:	fffffffc 	sdc3	$31,-4(ra)
	...
 e14:	00000038 	0x38
 e18:	0000001d 	0x1d
 e1c:	0000001f 	0x1f
 e20:	8ff057dc 	lw	s0,22492(ra)
 e24:	c0ff0000 	ll	ra,0(a3)
 e28:	fffffffc 	sdc3	$31,-4(ra)
	...
 e34:	00000070 	tge	zero,zero,0x1
 e38:	0000001d 	0x1d
 e3c:	0000001f 	0x1f
 e40:	8ff05d80 	lw	s0,23936(ra)
 e44:	800f0000 	lb	t7,0(zero)
 e48:	fffffffc 	sdc3	$31,-4(ra)
	...
 e54:	00000038 	0x38
 e58:	0000001d 	0x1d
 e5c:	0000001f 	0x1f
 e60:	8ff05ea8 	lw	s0,24232(ra)
 e64:	c0ff0000 	ll	ra,0(a3)
 e68:	fffffffc 	sdc3	$31,-4(ra)
	...
 e74:	00000040 	ssnop
 e78:	0000001d 	0x1d
 e7c:	0000001f 	0x1f
 e80:	8ff0611c 	lw	s0,24860(ra)
 e84:	c0ff0000 	ll	ra,0(a3)
 e88:	fffffffc 	sdc3	$31,-4(ra)
	...
 e94:	00000048 	0x48
 e98:	0000001d 	0x1d
 e9c:	0000001f 	0x1f
 ea0:	8ff0657c 	lw	s0,25980(ra)
	...
 eb8:	0000001d 	0x1d
 ebc:	0000001f 	0x1f
 ec0:	8ff0667c 	lw	s0,26236(ra)
 ec4:	800f0000 	lb	t7,0(zero)
 ec8:	fffffffc 	sdc3	$31,-4(ra)
	...
 ed4:	00000030 	tge	zero,zero
 ed8:	0000001d 	0x1d
 edc:	0000001f 	0x1f
 ee0:	8ff06740 	lw	s0,26432(ra)
	...
 ef8:	0000001d 	0x1d
 efc:	0000001f 	0x1f
 f00:	8ff06760 	lw	s0,26464(ra)
	...
 f18:	0000001d 	0x1d
 f1c:	0000001f 	0x1f
 f20:	8ff06788 	lw	s0,26504(ra)
	...
 f38:	0000001d 	0x1d
 f3c:	0000001f 	0x1f
 f40:	8ff06800 	lw	s0,26624(ra)
	...
 f58:	0000001d 	0x1d
 f5c:	0000001f 	0x1f
 f60:	8ff0685c 	lw	s0,26716(ra)
	...
 f78:	0000001d 	0x1d
 f7c:	0000001f 	0x1f
 f80:	8ff06940 	lw	s0,26944(ra)
	...
 f98:	0000001d 	0x1d
 f9c:	0000001f 	0x1f
 fa0:	8ff069a0 	lw	s0,27040(ra)
 fa4:	c0ff0000 	ll	ra,0(a3)
 fa8:	fffffffc 	sdc3	$31,-4(ra)
	...
 fb4:	00000068 	0x68
 fb8:	0000001d 	0x1d
 fbc:	0000001f 	0x1f
 fc0:	8ff06e88 	lw	s0,28296(ra)
 fc4:	803f0000 	lb	ra,0(at)
 fc8:	fffffffc 	sdc3	$31,-4(ra)
	...
 fd4:	00000030 	tge	zero,zero
 fd8:	0000001d 	0x1d
 fdc:	0000001f 	0x1f
